ARM GAS  C:\Users\ardav\AppData\Local\Temp\cc37iM3u.s 			page 1


   1              		.cpu cortex-m3
   2              		.arch armv7-m
   3              		.fpu softvfp
   4              		.eabi_attribute 20, 1
   5              		.eabi_attribute 21, 1
   6              		.eabi_attribute 23, 3
   7              		.eabi_attribute 24, 1
   8              		.eabi_attribute 25, 1
   9              		.eabi_attribute 26, 1
  10              		.eabi_attribute 30, 1
  11              		.eabi_attribute 34, 1
  12              		.eabi_attribute 18, 4
  13              		.file	"adf4351.c"
  14              		.text
  15              	.Ltext0:
  16              		.cfi_sections	.debug_frame
  17              		.section	.text.SPI_assert_CS_LD,"ax",%progbits
  18              		.align	1
  19              		.global	SPI_assert_CS_LD
  20              		.syntax unified
  21              		.thumb
  22              		.thumb_func
  24              	SPI_assert_CS_LD:
  25              	.LFB65:
  26              		.file 1 "Core/Src/adf4351.c"
   1:Core/Src/adf4351.c **** /**
   2:Core/Src/adf4351.c ****  * @file adf4351.c
   3:Core/Src/adf4351.c ****  * @author Originally by Peter Fetterer - Integrated by Ardavan Pourkeramati
   4:Core/Src/adf4351.c ****  * @brief ADF4351 driver source file
   5:Core/Src/adf4351.c ****  * @version 0.1
   6:Core/Src/adf4351.c ****  * @date 2024-07-29
   7:Core/Src/adf4351.c ****  * 
   8:Core/Src/adf4351.c ****  * @copyright Copyright (c) 2024
   9:Core/Src/adf4351.c ****  * 
  10:Core/Src/adf4351.c ****  */
  11:Core/Src/adf4351.c **** 
  12:Core/Src/adf4351.c **** #include "adf4351.h"
  13:Core/Src/adf4351.c **** 
  14:Core/Src/adf4351.c **** // defined in main.c, note external linkage.
  15:Core/Src/adf4351.c **** extern SPI_HandleTypeDef hspi1;
  16:Core/Src/adf4351.c **** 
  17:Core/Src/adf4351.c **** struct adf4350_platform_data platdata;
  18:Core/Src/adf4351.c **** 
  19:Core/Src/adf4351.c **** /***************************************************************************//**
  20:Core/Src/adf4351.c ****  * @brief assert SPI CS and LD
  21:Core/Src/adf4351.c ****  * This set the IO pins to zero..
  22:Core/Src/adf4351.c **** *******************************************************************************/
  23:Core/Src/adf4351.c **** void SPI_assert_CS_LD() {
  27              		.loc 1 23 25 view -0
  28              		.cfi_startproc
  29              		@ args = 0, pretend = 0, frame = 0
  30              		@ frame_needed = 0, uses_anonymous_args = 0
  31 0000 10B5     		push	{r4, lr}
  32              	.LCFI0:
  33              		.cfi_def_cfa_offset 8
  34              		.cfi_offset 4, -8
  35              		.cfi_offset 14, -4
ARM GAS  C:\Users\ardav\AppData\Local\Temp\cc37iM3u.s 			page 2


  24:Core/Src/adf4351.c **** 	HAL_GPIO_WritePin(SPI1_CSn_GPIO_Port, SPI1_CSn_Pin, 0);
  36              		.loc 1 24 2 view .LVU1
  37 0002 064C     		ldr	r4, .L3
  38 0004 0022     		movs	r2, #0
  39 0006 1021     		movs	r1, #16
  40 0008 2046     		mov	r0, r4
  41 000a FFF7FEFF 		bl	HAL_GPIO_WritePin
  42              	.LVL0:
  25:Core/Src/adf4351.c **** 	HAL_GPIO_WritePin(SPI1_LD_GPIO_Port, SPI1_LD_Pin, 0);
  43              		.loc 1 25 2 view .LVU2
  44 000e 0022     		movs	r2, #0
  45 0010 4FF48061 		mov	r1, #1024
  46 0014 2046     		mov	r0, r4
  47 0016 FFF7FEFF 		bl	HAL_GPIO_WritePin
  48              	.LVL1:
  26:Core/Src/adf4351.c **** }
  49              		.loc 1 26 1 is_stmt 0 view .LVU3
  50 001a 10BD     		pop	{r4, pc}
  51              	.L4:
  52              		.align	2
  53              	.L3:
  54 001c 00080140 		.word	1073809408
  55              		.cfi_endproc
  56              	.LFE65:
  58              		.section	.text.SPI_deassert_CS_LD,"ax",%progbits
  59              		.align	1
  60              		.global	SPI_deassert_CS_LD
  61              		.syntax unified
  62              		.thumb
  63              		.thumb_func
  65              	SPI_deassert_CS_LD:
  66              	.LFB66:
  27:Core/Src/adf4351.c **** 
  28:Core/Src/adf4351.c **** /***************************************************************************//**
  29:Core/Src/adf4351.c ****  * @brief assert SPI CS and LD
  30:Core/Src/adf4351.c ****  * This sets the IO pins to one..
  31:Core/Src/adf4351.c **** *******************************************************************************/
  32:Core/Src/adf4351.c **** void SPI_deassert_CS_LD() {
  67              		.loc 1 32 27 is_stmt 1 view -0
  68              		.cfi_startproc
  69              		@ args = 0, pretend = 0, frame = 0
  70              		@ frame_needed = 0, uses_anonymous_args = 0
  71 0000 10B5     		push	{r4, lr}
  72              	.LCFI1:
  73              		.cfi_def_cfa_offset 8
  74              		.cfi_offset 4, -8
  75              		.cfi_offset 14, -4
  33:Core/Src/adf4351.c **** 	HAL_GPIO_WritePin(SPI1_CSn_GPIO_Port, SPI1_CSn_Pin, 1);
  76              		.loc 1 33 2 view .LVU5
  77 0002 064C     		ldr	r4, .L7
  78 0004 0122     		movs	r2, #1
  79 0006 1021     		movs	r1, #16
  80 0008 2046     		mov	r0, r4
  81 000a FFF7FEFF 		bl	HAL_GPIO_WritePin
  82              	.LVL2:
  34:Core/Src/adf4351.c **** 	HAL_GPIO_WritePin(SPI1_LD_GPIO_Port, SPI1_LD_Pin, 1);
  83              		.loc 1 34 2 view .LVU6
ARM GAS  C:\Users\ardav\AppData\Local\Temp\cc37iM3u.s 			page 3


  84 000e 0122     		movs	r2, #1
  85 0010 4FF48061 		mov	r1, #1024
  86 0014 2046     		mov	r0, r4
  87 0016 FFF7FEFF 		bl	HAL_GPIO_WritePin
  88              	.LVL3:
  35:Core/Src/adf4351.c **** }
  89              		.loc 1 35 1 is_stmt 0 view .LVU7
  90 001a 10BD     		pop	{r4, pc}
  91              	.L8:
  92              		.align	2
  93              	.L7:
  94 001c 00080140 		.word	1073809408
  95              		.cfi_endproc
  96              	.LFE66:
  98              		.section	.text.SPI_Write,"ax",%progbits
  99              		.align	1
 100              		.global	SPI_Write
 101              		.syntax unified
 102              		.thumb
 103              		.thumb_func
 105              	SPI_Write:
 106              	.LVL4:
 107              	.LFB67:
  36:Core/Src/adf4351.c **** 
  37:Core/Src/adf4351.c **** /************************
  38:Core/Src/adf4351.c ****  *  @brief write 8 bits of data on SPI interface MOSI pin..
  39:Core/Src/adf4351.c ****  */
  40:Core/Src/adf4351.c **** void SPI_Write(uint8_t data) {
 108              		.loc 1 40 30 is_stmt 1 view -0
 109              		.cfi_startproc
 110              		@ args = 0, pretend = 0, frame = 8
 111              		@ frame_needed = 0, uses_anonymous_args = 0
 112              		.loc 1 40 30 is_stmt 0 view .LVU9
 113 0000 00B5     		push	{lr}
 114              	.LCFI2:
 115              		.cfi_def_cfa_offset 4
 116              		.cfi_offset 14, -4
 117 0002 83B0     		sub	sp, sp, #12
 118              	.LCFI3:
 119              		.cfi_def_cfa_offset 16
 120 0004 8DF80700 		strb	r0, [sp, #7]
  41:Core/Src/adf4351.c **** 	HAL_SPI_Transmit(&hspi1, &data, 1, 1000);
 121              		.loc 1 41 2 is_stmt 1 view .LVU10
 122 0008 4FF47A73 		mov	r3, #1000
 123 000c 0122     		movs	r2, #1
 124 000e 0DF10701 		add	r1, sp, #7
 125 0012 0348     		ldr	r0, .L11
 126              	.LVL5:
 127              		.loc 1 41 2 is_stmt 0 view .LVU11
 128 0014 FFF7FEFF 		bl	HAL_SPI_Transmit
 129              	.LVL6:
  42:Core/Src/adf4351.c **** }
 130              		.loc 1 42 1 view .LVU12
 131 0018 03B0     		add	sp, sp, #12
 132              	.LCFI4:
 133              		.cfi_def_cfa_offset 4
 134              		@ sp needed
ARM GAS  C:\Users\ardav\AppData\Local\Temp\cc37iM3u.s 			page 4


 135 001a 5DF804FB 		ldr	pc, [sp], #4
 136              	.L12:
 137 001e 00BF     		.align	2
 138              	.L11:
 139 0020 00000000 		.word	hspi1
 140              		.cfi_endproc
 141              	.LFE67:
 143              		.section	.text.adf4350_write,"ax",%progbits
 144              		.align	1
 145              		.global	adf4350_write
 146              		.syntax unified
 147              		.thumb
 148              		.thumb_func
 150              	adf4350_write:
 151              	.LVL7:
 152              	.LFB68:
  43:Core/Src/adf4351.c **** 
  44:Core/Src/adf4351.c **** /******************************************************************************/
  45:Core/Src/adf4351.c **** /************************ Local variables and types ***************************/
  46:Core/Src/adf4351.c **** /******************************************************************************/
  47:Core/Src/adf4351.c **** static struct adf4350_state
  48:Core/Src/adf4351.c **** {
  49:Core/Src/adf4351.c **** 	struct adf4350_platform_data	*pdata;
  50:Core/Src/adf4351.c **** 	uint32_t	clkin;
  51:Core/Src/adf4351.c **** 	uint32_t	chspc;	/* Channel Spacing */
  52:Core/Src/adf4351.c **** 	uint32_t	fpfd;	/* Phase Frequency Detector */
  53:Core/Src/adf4351.c **** 	uint32_t	min_out_freq;
  54:Core/Src/adf4351.c **** 	uint32_t	r0_fract;
  55:Core/Src/adf4351.c **** 	uint32_t	r0_int;
  56:Core/Src/adf4351.c **** 	uint32_t	r1_mod;
  57:Core/Src/adf4351.c **** 	uint32_t	r4_rf_div_sel;
  58:Core/Src/adf4351.c **** 	uint32_t	regs[6];
  59:Core/Src/adf4351.c **** 	uint32_t	regs_hw[6];
  60:Core/Src/adf4351.c **** 	uint32_t 	val;
  61:Core/Src/adf4351.c **** } adf4350_st;
  62:Core/Src/adf4351.c **** 
  63:Core/Src/adf4351.c **** 
  64:Core/Src/adf4351.c **** /***************************************************************************//**
  65:Core/Src/adf4351.c ****  * @brief Writes 4 bytes of data to ADF4350.
  66:Core/Src/adf4351.c ****  *
  67:Core/Src/adf4351.c ****  * @param data - Data value to write.
  68:Core/Src/adf4351.c ****  *
  69:Core/Src/adf4351.c ****  * @return Returns 0 in case of success or negative error code..
  70:Core/Src/adf4351.c **** *******************************************************************************/
  71:Core/Src/adf4351.c **** int32_t adf4350_write(uint32_t data)
  72:Core/Src/adf4351.c **** {
 153              		.loc 1 72 1 is_stmt 1 view -0
 154              		.cfi_startproc
 155              		@ args = 0, pretend = 0, frame = 8
 156              		@ frame_needed = 0, uses_anonymous_args = 0
 157              		.loc 1 72 1 is_stmt 0 view .LVU14
 158 0000 F0B5     		push	{r4, r5, r6, r7, lr}
 159              	.LCFI5:
 160              		.cfi_def_cfa_offset 20
 161              		.cfi_offset 4, -20
 162              		.cfi_offset 5, -16
 163              		.cfi_offset 6, -12
ARM GAS  C:\Users\ardav\AppData\Local\Temp\cc37iM3u.s 			page 5


 164              		.cfi_offset 7, -8
 165              		.cfi_offset 14, -4
 166 0002 83B0     		sub	sp, sp, #12
 167              	.LCFI6:
 168              		.cfi_def_cfa_offset 32
  73:Core/Src/adf4351.c **** 	uint8_t txData[4];
 169              		.loc 1 73 2 is_stmt 1 view .LVU15
  74:Core/Src/adf4351.c **** 	txData[0] = (data & 0xFF000000) >> 24;
 170              		.loc 1 74 2 view .LVU16
 171              		.loc 1 74 12 is_stmt 0 view .LVU17
 172 0004 070E     		lsrs	r7, r0, #24
 173 0006 8DF80470 		strb	r7, [sp, #4]
  75:Core/Src/adf4351.c **** 	txData[1] = (data & 0x00FF0000) >> 16;
 174              		.loc 1 75 2 is_stmt 1 view .LVU18
 175              		.loc 1 75 12 is_stmt 0 view .LVU19
 176 000a C0F30746 		ubfx	r6, r0, #16, #8
 177 000e 8DF80560 		strb	r6, [sp, #5]
  76:Core/Src/adf4351.c **** 	txData[2] = (data & 0x0000FF00) >> 8;
 178              		.loc 1 76 2 is_stmt 1 view .LVU20
 179              		.loc 1 76 12 is_stmt 0 view .LVU21
 180 0012 C0F30725 		ubfx	r5, r0, #8, #8
 181 0016 8DF80650 		strb	r5, [sp, #6]
  77:Core/Src/adf4351.c **** 	txData[3] = (data & 0x000000FF) >> 0;
 182              		.loc 1 77 2 is_stmt 1 view .LVU22
 183              		.loc 1 77 12 is_stmt 0 view .LVU23
 184 001a C4B2     		uxtb	r4, r0
 185 001c 8DF80740 		strb	r4, [sp, #7]
  78:Core/Src/adf4351.c **** 
  79:Core/Src/adf4351.c **** 	// Assert CS and LD for whole period..
  80:Core/Src/adf4351.c **** 	// Write txData 0..3
  81:Core/Src/adf4351.c **** 	SPI_assert_CS_LD();
 186              		.loc 1 81 2 is_stmt 1 view .LVU24
 187 0020 FFF7FEFF 		bl	SPI_assert_CS_LD
 188              	.LVL8:
  82:Core/Src/adf4351.c **** 	SPI_Write(txData[0]);
 189              		.loc 1 82 2 view .LVU25
 190 0024 3846     		mov	r0, r7
 191 0026 FFF7FEFF 		bl	SPI_Write
 192              	.LVL9:
  83:Core/Src/adf4351.c **** 	SPI_Write(txData[1]);
 193              		.loc 1 83 2 view .LVU26
 194 002a 3046     		mov	r0, r6
 195 002c FFF7FEFF 		bl	SPI_Write
 196              	.LVL10:
  84:Core/Src/adf4351.c **** 	SPI_Write(txData[2]);
 197              		.loc 1 84 2 view .LVU27
 198 0030 2846     		mov	r0, r5
 199 0032 FFF7FEFF 		bl	SPI_Write
 200              	.LVL11:
  85:Core/Src/adf4351.c **** 	SPI_Write(txData[3]);
 201              		.loc 1 85 2 view .LVU28
 202 0036 2046     		mov	r0, r4
 203 0038 FFF7FEFF 		bl	SPI_Write
 204              	.LVL12:
  86:Core/Src/adf4351.c **** 	SPI_deassert_CS_LD();
 205              		.loc 1 86 2 view .LVU29
 206 003c FFF7FEFF 		bl	SPI_deassert_CS_LD
ARM GAS  C:\Users\ardav\AppData\Local\Temp\cc37iM3u.s 			page 6


 207              	.LVL13:
  87:Core/Src/adf4351.c **** 	return 0;
 208              		.loc 1 87 2 view .LVU30
  88:Core/Src/adf4351.c **** }
 209              		.loc 1 88 1 is_stmt 0 view .LVU31
 210 0040 0020     		movs	r0, #0
 211 0042 03B0     		add	sp, sp, #12
 212              	.LCFI7:
 213              		.cfi_def_cfa_offset 20
 214              		@ sp needed
 215 0044 F0BD     		pop	{r4, r5, r6, r7, pc}
 216              		.cfi_endproc
 217              	.LFE68:
 219              		.section	.text.adf4350_sync_config,"ax",%progbits
 220              		.align	1
 221              		.global	adf4350_sync_config
 222              		.syntax unified
 223              		.thumb
 224              		.thumb_func
 226              	adf4350_sync_config:
 227              	.LVL14:
 228              	.LFB69:
  89:Core/Src/adf4351.c **** 
  90:Core/Src/adf4351.c **** /***************************************************************************//**
  91:Core/Src/adf4351.c ****  * @brief Updates the registers values.
  92:Core/Src/adf4351.c ****  *
  93:Core/Src/adf4351.c ****  * @param st - The selected structure.
  94:Core/Src/adf4351.c ****  *
  95:Core/Src/adf4351.c ****  * @return Returns 0 in case of success or negative error code.
  96:Core/Src/adf4351.c **** *******************************************************************************/
  97:Core/Src/adf4351.c **** int32_t adf4350_sync_config(struct adf4350_state *st)
  98:Core/Src/adf4351.c **** {
 229              		.loc 1 98 1 is_stmt 1 view -0
 230              		.cfi_startproc
 231              		@ args = 0, pretend = 0, frame = 0
 232              		@ frame_needed = 0, uses_anonymous_args = 0
 233              		.loc 1 98 1 is_stmt 0 view .LVU33
 234 0000 70B5     		push	{r4, r5, r6, lr}
 235              	.LCFI8:
 236              		.cfi_def_cfa_offset 16
 237              		.cfi_offset 4, -16
 238              		.cfi_offset 5, -12
 239              		.cfi_offset 6, -8
 240              		.cfi_offset 14, -4
 241 0002 0546     		mov	r5, r0
  99:Core/Src/adf4351.c **** 	int32_t ret, i, doublebuf = 0;
 242              		.loc 1 99 2 is_stmt 1 view .LVU34
 243              	.LVL15:
 100:Core/Src/adf4351.c **** 
 101:Core/Src/adf4351.c **** 	for (i = ADF4350_REG5; i >= ADF4350_REG0; i--)
 244              		.loc 1 101 2 view .LVU35
  99:Core/Src/adf4351.c **** 	int32_t ret, i, doublebuf = 0;
 245              		.loc 1 99 18 is_stmt 0 view .LVU36
 246 0004 0026     		movs	r6, #0
 247              		.loc 1 101 9 view .LVU37
 248 0006 0524     		movs	r4, #5
 249              		.loc 1 101 2 view .LVU38
ARM GAS  C:\Users\ardav\AppData\Local\Temp\cc37iM3u.s 			page 7


 250 0008 14E0     		b	.L16
 251              	.LVL16:
 252              	.L25:
 102:Core/Src/adf4351.c **** 	{
 103:Core/Src/adf4351.c **** 		if ((st->regs_hw[i] != st->regs[i]) ||
 253              		.loc 1 103 39 discriminator 1 view .LVU39
 254 000a 94B9     		cbnz	r4, .L18
 104:Core/Src/adf4351.c **** 			((i == ADF4350_REG0) && doublebuf))
 255              		.loc 1 104 25 view .LVU40
 256 000c 8EB1     		cbz	r6, .L18
 257 000e 1FE0     		b	.L17
 258              	.L22:
 105:Core/Src/adf4351.c **** 		{
 106:Core/Src/adf4351.c **** 			switch (i)
 107:Core/Src/adf4351.c **** 			{
 108:Core/Src/adf4351.c **** 				case ADF4350_REG1:
 109:Core/Src/adf4351.c **** 				case ADF4350_REG4:
 110:Core/Src/adf4351.c **** 					doublebuf = 1;
 259              		.loc 1 110 16 view .LVU41
 260 0010 2646     		mov	r6, r4
 261              	.LVL17:
 262              	.L19:
 111:Core/Src/adf4351.c **** 					break;
 112:Core/Src/adf4351.c **** 			}
 113:Core/Src/adf4351.c **** 
 114:Core/Src/adf4351.c **** 			st->val = (st->regs[i] | i);
 263              		.loc 1 114 4 is_stmt 1 view .LVU42
 264              		.loc 1 114 27 is_stmt 0 view .LVU43
 265 0012 2043     		orrs	r0, r0, r4
 266              		.loc 1 114 12 view .LVU44
 267 0014 6865     		str	r0, [r5, #84]
 115:Core/Src/adf4351.c **** 			ret = adf4350_write(st->val);
 268              		.loc 1 115 4 is_stmt 1 view .LVU45
 269              		.loc 1 115 10 is_stmt 0 view .LVU46
 270 0016 FFF7FEFF 		bl	adf4350_write
 271              	.LVL18:
 116:Core/Src/adf4351.c **** 			if (ret < 0)
 272              		.loc 1 116 4 is_stmt 1 view .LVU47
 273              		.loc 1 116 7 is_stmt 0 view .LVU48
 274 001a 0028     		cmp	r0, #0
 275              		.loc 1 116 7 view .LVU49
 276 001c 1FDB     		blt	.L15
 117:Core/Src/adf4351.c **** 				return ret;
 118:Core/Src/adf4351.c **** 			st->regs_hw[i] = st->regs[i];
 277              		.loc 1 118 4 is_stmt 1 view .LVU50
 278              		.loc 1 118 29 is_stmt 0 view .LVU51
 279 001e 04F10803 		add	r3, r4, #8
 280 0022 05EB8303 		add	r3, r5, r3, lsl #2
 281 0026 5A68     		ldr	r2, [r3, #4]
 282              		.loc 1 118 19 view .LVU52
 283 0028 04F10E03 		add	r3, r4, #14
 284 002c 05EB8303 		add	r3, r5, r3, lsl #2
 285 0030 5A60     		str	r2, [r3, #4]
 286              	.LVL19:
 287              	.L18:
 101:Core/Src/adf4351.c **** 	{
 288              		.loc 1 101 45 is_stmt 1 discriminator 2 view .LVU53
ARM GAS  C:\Users\ardav\AppData\Local\Temp\cc37iM3u.s 			page 8


 289 0032 013C     		subs	r4, r4, #1
 290              	.LVL20:
 291              	.L16:
 101:Core/Src/adf4351.c **** 	{
 292              		.loc 1 101 27 discriminator 1 view .LVU54
 293 0034 002C     		cmp	r4, #0
 294 0036 11DB     		blt	.L24
 103:Core/Src/adf4351.c **** 			((i == ADF4350_REG0) && doublebuf))
 295              		.loc 1 103 3 view .LVU55
 103:Core/Src/adf4351.c **** 			((i == ADF4350_REG0) && doublebuf))
 296              		.loc 1 103 19 is_stmt 0 view .LVU56
 297 0038 04F10E03 		add	r3, r4, #14
 298 003c 05EB8303 		add	r3, r5, r3, lsl #2
 299 0040 5A68     		ldr	r2, [r3, #4]
 103:Core/Src/adf4351.c **** 			((i == ADF4350_REG0) && doublebuf))
 300              		.loc 1 103 34 view .LVU57
 301 0042 04F10803 		add	r3, r4, #8
 302 0046 05EB8303 		add	r3, r5, r3, lsl #2
 303 004a 5868     		ldr	r0, [r3, #4]
 103:Core/Src/adf4351.c **** 			((i == ADF4350_REG0) && doublebuf))
 304              		.loc 1 103 6 view .LVU58
 305 004c 8242     		cmp	r2, r0
 306 004e DCD0     		beq	.L25
 307              	.L17:
 106:Core/Src/adf4351.c **** 			{
 308              		.loc 1 106 4 is_stmt 1 view .LVU59
 309 0050 012C     		cmp	r4, #1
 310 0052 DDD0     		beq	.L22
 311 0054 042C     		cmp	r4, #4
 312 0056 DCD1     		bne	.L19
 110:Core/Src/adf4351.c **** 					break;
 313              		.loc 1 110 16 is_stmt 0 view .LVU60
 314 0058 0126     		movs	r6, #1
 315              	.LVL21:
 110:Core/Src/adf4351.c **** 					break;
 316              		.loc 1 110 16 view .LVU61
 317 005a DAE7     		b	.L19
 318              	.LVL22:
 319              	.L24:
 119:Core/Src/adf4351.c **** 		}
 120:Core/Src/adf4351.c **** 	}
 121:Core/Src/adf4351.c **** 
 122:Core/Src/adf4351.c **** 	return 0;
 320              		.loc 1 122 9 view .LVU62
 321 005c 0020     		movs	r0, #0
 322              	.L15:
 123:Core/Src/adf4351.c **** }
 323              		.loc 1 123 1 view .LVU63
 324 005e 70BD     		pop	{r4, r5, r6, pc}
 325              		.loc 1 123 1 view .LVU64
 326              		.cfi_endproc
 327              	.LFE69:
 329              		.section	.text.adf4350_tune_r_cnt,"ax",%progbits
 330              		.align	1
 331              		.global	adf4350_tune_r_cnt
 332              		.syntax unified
 333              		.thumb
ARM GAS  C:\Users\ardav\AppData\Local\Temp\cc37iM3u.s 			page 9


 334              		.thumb_func
 336              	adf4350_tune_r_cnt:
 337              	.LVL23:
 338              	.LFB70:
 124:Core/Src/adf4351.c **** 
 125:Core/Src/adf4351.c **** /***************************************************************************//**
 126:Core/Src/adf4351.c ****  * @brief Increases the R counter value until the ADF4350_MAX_FREQ_PFD is
 127:Core/Src/adf4351.c ****  *        greater than PFD frequency.
 128:Core/Src/adf4351.c ****  *
 129:Core/Src/adf4351.c ****  * @param st    - The selected structure.
 130:Core/Src/adf4351.c ****  * @param r_cnt - Initial r_cnt value.
 131:Core/Src/adf4351.c ****  *
 132:Core/Src/adf4351.c ****  * @return Returns 0 in case of success or negative error code.
 133:Core/Src/adf4351.c **** *******************************************************************************/
 134:Core/Src/adf4351.c **** int32_t adf4350_tune_r_cnt(struct adf4350_state *st, uint16_t r_cnt)
 135:Core/Src/adf4351.c **** {
 339              		.loc 1 135 1 is_stmt 1 view -0
 340              		.cfi_startproc
 341              		@ args = 0, pretend = 0, frame = 0
 342              		@ frame_needed = 0, uses_anonymous_args = 0
 343              		@ link register save eliminated.
 344              		.loc 1 135 1 is_stmt 0 view .LVU66
 345 0000 10B4     		push	{r4}
 346              	.LCFI9:
 347              		.cfi_def_cfa_offset 4
 348              		.cfi_offset 4, -4
 349 0002 8446     		mov	ip, r0
 136:Core/Src/adf4351.c **** 	struct adf4350_platform_data *pdata = st->pdata;
 350              		.loc 1 136 2 is_stmt 1 view .LVU67
 351              		.loc 1 136 32 is_stmt 0 view .LVU68
 352 0004 0468     		ldr	r4, [r0]
 353              	.LVL24:
 354              		.loc 1 136 32 view .LVU69
 355 0006 0BE0     		b	.L29
 356              	.LVL25:
 357              	.L30:
 137:Core/Src/adf4351.c **** 
 138:Core/Src/adf4351.c **** 	do
 139:Core/Src/adf4351.c **** 	{
 140:Core/Src/adf4351.c **** 		r_cnt++;
 141:Core/Src/adf4351.c **** 		st->fpfd = (st->clkin * (pdata->ref_doubler_en ? 2 : 1)) /
 358              		.loc 1 141 54 view .LVU70
 359 0008 0122     		movs	r2, #1
 360 000a 11E0     		b	.L27
 361              	.L31:
 142:Core/Src/adf4351.c **** 			   (r_cnt * (pdata->ref_div2_en ? 2 : 1));
 362              		.loc 1 142 40 view .LVU71
 363 000c 0122     		movs	r2, #1
 364              	.L28:
 365              		.loc 1 142 14 discriminator 4 view .LVU72
 366 000e 00FB02F2 		mul	r2, r0, r2
 141:Core/Src/adf4351.c **** 			   (r_cnt * (pdata->ref_div2_en ? 2 : 1));
 367              		.loc 1 141 60 discriminator 4 view .LVU73
 368 0012 B3FBF2F3 		udiv	r3, r3, r2
 141:Core/Src/adf4351.c **** 			   (r_cnt * (pdata->ref_div2_en ? 2 : 1));
 369              		.loc 1 141 12 discriminator 4 view .LVU74
 370 0016 CCF80C30 		str	r3, [ip, #12]
ARM GAS  C:\Users\ardav\AppData\Local\Temp\cc37iM3u.s 			page 10


 143:Core/Src/adf4351.c **** 	} while (st->fpfd > ADF4350_MAX_FREQ_PFD);
 371              		.loc 1 143 20 is_stmt 1 discriminator 4 view .LVU75
 372 001a 0A4A     		ldr	r2, .L34
 373 001c 9342     		cmp	r3, r2
 374 001e 0FD9     		bls	.L33
 375              	.L29:
 138:Core/Src/adf4351.c **** 	{
 376              		.loc 1 138 2 view .LVU76
 140:Core/Src/adf4351.c **** 		st->fpfd = (st->clkin * (pdata->ref_doubler_en ? 2 : 1)) /
 377              		.loc 1 140 3 view .LVU77
 140:Core/Src/adf4351.c **** 		st->fpfd = (st->clkin * (pdata->ref_doubler_en ? 2 : 1)) /
 378              		.loc 1 140 8 is_stmt 0 view .LVU78
 379 0020 0131     		adds	r1, r1, #1
 380              	.LVL26:
 140:Core/Src/adf4351.c **** 		st->fpfd = (st->clkin * (pdata->ref_doubler_en ? 2 : 1)) /
 381              		.loc 1 140 8 view .LVU79
 382 0022 89B2     		uxth	r1, r1
 383              	.LVL27:
 141:Core/Src/adf4351.c **** 			   (r_cnt * (pdata->ref_div2_en ? 2 : 1));
 384              		.loc 1 141 3 is_stmt 1 view .LVU80
 141:Core/Src/adf4351.c **** 			   (r_cnt * (pdata->ref_div2_en ? 2 : 1));
 385              		.loc 1 141 17 is_stmt 0 view .LVU81
 386 0024 DCF80430 		ldr	r3, [ip, #4]
 141:Core/Src/adf4351.c **** 			   (r_cnt * (pdata->ref_div2_en ? 2 : 1));
 387              		.loc 1 141 33 view .LVU82
 388 0028 A27C     		ldrb	r2, [r4, #18]	@ zero_extendqisi2
 141:Core/Src/adf4351.c **** 			   (r_cnt * (pdata->ref_div2_en ? 2 : 1));
 389              		.loc 1 141 54 view .LVU83
 390 002a 002A     		cmp	r2, #0
 391 002c ECD0     		beq	.L30
 392 002e 0222     		movs	r2, #2
 393              	.L27:
 141:Core/Src/adf4351.c **** 			   (r_cnt * (pdata->ref_div2_en ? 2 : 1));
 394              		.loc 1 141 25 discriminator 4 view .LVU84
 395 0030 02FB03F3 		mul	r3, r2, r3
 142:Core/Src/adf4351.c **** 	} while (st->fpfd > ADF4350_MAX_FREQ_PFD);
 396              		.loc 1 142 14 discriminator 4 view .LVU85
 397 0034 0846     		mov	r0, r1
 142:Core/Src/adf4351.c **** 	} while (st->fpfd > ADF4350_MAX_FREQ_PFD);
 398              		.loc 1 142 22 discriminator 4 view .LVU86
 399 0036 E27C     		ldrb	r2, [r4, #19]	@ zero_extendqisi2
 142:Core/Src/adf4351.c **** 	} while (st->fpfd > ADF4350_MAX_FREQ_PFD);
 400              		.loc 1 142 40 discriminator 4 view .LVU87
 401 0038 002A     		cmp	r2, #0
 402 003a E7D0     		beq	.L31
 142:Core/Src/adf4351.c **** 	} while (st->fpfd > ADF4350_MAX_FREQ_PFD);
 403              		.loc 1 142 40 view .LVU88
 404 003c 0222     		movs	r2, #2
 405 003e E6E7     		b	.L28
 406              	.L33:
 144:Core/Src/adf4351.c **** 
 145:Core/Src/adf4351.c **** 	return r_cnt;
 407              		.loc 1 145 2 is_stmt 1 view .LVU89
 146:Core/Src/adf4351.c **** }
 408              		.loc 1 146 1 is_stmt 0 view .LVU90
 409 0040 10BC     		pop	{r4}
 410              	.LCFI10:
ARM GAS  C:\Users\ardav\AppData\Local\Temp\cc37iM3u.s 			page 11


 411              		.cfi_restore 4
 412              		.cfi_def_cfa_offset 0
 413              	.LVL28:
 414              		.loc 1 146 1 view .LVU91
 415 0042 7047     		bx	lr
 416              	.L35:
 417              		.align	2
 418              	.L34:
 419 0044 0048E801 		.word	32000000
 420              		.cfi_endproc
 421              	.LFE70:
 423              		.section	.text.gcd,"ax",%progbits
 424              		.align	1
 425              		.global	gcd
 426              		.syntax unified
 427              		.thumb
 428              		.thumb_func
 430              	gcd:
 431              	.LVL29:
 432              	.LFB71:
 147:Core/Src/adf4351.c **** 
 148:Core/Src/adf4351.c **** /***************************************************************************//**
 149:Core/Src/adf4351.c ****  * @brief Computes the greatest common divider of two numbers
 150:Core/Src/adf4351.c ****  *
 151:Core/Src/adf4351.c ****  * @return Returns the gcd.
 152:Core/Src/adf4351.c **** *******************************************************************************/
 153:Core/Src/adf4351.c **** uint32_t gcd(uint32_t x, uint32_t y)
 154:Core/Src/adf4351.c **** {
 433              		.loc 1 154 1 is_stmt 1 view -0
 434              		.cfi_startproc
 435              		@ args = 0, pretend = 0, frame = 0
 436              		@ frame_needed = 0, uses_anonymous_args = 0
 437              		@ link register save eliminated.
 438              		.loc 1 154 1 is_stmt 0 view .LVU93
 439 0000 8446     		mov	ip, r0
 155:Core/Src/adf4351.c **** 	int32_t tmp;
 440              		.loc 1 155 2 is_stmt 1 view .LVU94
 156:Core/Src/adf4351.c **** 
 157:Core/Src/adf4351.c **** 	tmp = y > x ? x : y;
 441              		.loc 1 157 2 view .LVU95
 442              		.loc 1 157 6 is_stmt 0 view .LVU96
 443 0002 0B46     		mov	r3, r1
 444 0004 8142     		cmp	r1, r0
 445 0006 28BF     		it	cs
 446 0008 0346     		movcs	r3, r0
 447              	.LVL30:
 158:Core/Src/adf4351.c **** 
 159:Core/Src/adf4351.c **** 
 160:Core/Src/adf4351.c **** 	while((x % tmp) || (y % tmp))
 448              		.loc 1 160 2 is_stmt 1 view .LVU97
 449              		.loc 1 160 7 is_stmt 0 view .LVU98
 450 000a 00E0     		b	.L37
 451              	.LVL31:
 452              	.L38:
 161:Core/Src/adf4351.c **** 	{
 162:Core/Src/adf4351.c **** 		tmp--;
 453              		.loc 1 162 3 is_stmt 1 view .LVU99
ARM GAS  C:\Users\ardav\AppData\Local\Temp\cc37iM3u.s 			page 12


 454              		.loc 1 162 6 is_stmt 0 view .LVU100
 455 000c 013B     		subs	r3, r3, #1
 456              	.LVL32:
 457              	.L37:
 160:Core/Src/adf4351.c **** 	{
 458              		.loc 1 160 18 is_stmt 1 view .LVU101
 160:Core/Src/adf4351.c **** 	{
 459              		.loc 1 160 11 is_stmt 0 view .LVU102
 460 000e 1846     		mov	r0, r3
 461 0010 BCFBF3F2 		udiv	r2, ip, r3
 462 0014 03FB12C2 		mls	r2, r3, r2, ip
 160:Core/Src/adf4351.c **** 	{
 463              		.loc 1 160 18 view .LVU103
 464 0018 002A     		cmp	r2, #0
 465 001a F7D1     		bne	.L38
 160:Core/Src/adf4351.c **** 	{
 466              		.loc 1 160 24 discriminator 1 view .LVU104
 467 001c B1FBF3F2 		udiv	r2, r1, r3
 468 0020 03FB1212 		mls	r2, r3, r2, r1
 160:Core/Src/adf4351.c **** 	{
 469              		.loc 1 160 18 discriminator 1 view .LVU105
 470 0024 002A     		cmp	r2, #0
 471 0026 F1D1     		bne	.L38
 163:Core/Src/adf4351.c **** 	}
 164:Core/Src/adf4351.c **** 
 165:Core/Src/adf4351.c **** 	return tmp;
 472              		.loc 1 165 2 is_stmt 1 view .LVU106
 166:Core/Src/adf4351.c **** }
 473              		.loc 1 166 1 is_stmt 0 view .LVU107
 474 0028 7047     		bx	lr
 475              		.cfi_endproc
 476              	.LFE71:
 478              		.global	__aeabi_uldivmod
 479              		.section	.text.adf4350_set_freq,"ax",%progbits
 480              		.align	1
 481              		.global	adf4350_set_freq
 482              		.syntax unified
 483              		.thumb
 484              		.thumb_func
 486              	adf4350_set_freq:
 487              	.LVL33:
 488              	.LFB72:
 167:Core/Src/adf4351.c **** 
 168:Core/Src/adf4351.c **** /***************************************************************************//**
 169:Core/Src/adf4351.c ****  * @brief Sets the ADF4350 frequency.
 170:Core/Src/adf4351.c ****  *
 171:Core/Src/adf4351.c ****  * @param st   - The selected structure.
 172:Core/Src/adf4351.c ****  * @param freq - The desired frequency value.
 173:Core/Src/adf4351.c ****  *
 174:Core/Src/adf4351.c ****  * @return calculatedFrequency - The actual frequency value that was set.
 175:Core/Src/adf4351.c **** *******************************************************************************/
 176:Core/Src/adf4351.c **** int64_t adf4350_set_freq(struct adf4350_state *st, uint64_t freq)
 177:Core/Src/adf4351.c **** {
 489              		.loc 1 177 1 is_stmt 1 view -0
 490              		.cfi_startproc
 491              		@ args = 0, pretend = 0, frame = 24
 492              		@ frame_needed = 0, uses_anonymous_args = 0
ARM GAS  C:\Users\ardav\AppData\Local\Temp\cc37iM3u.s 			page 13


 493              		.loc 1 177 1 is_stmt 0 view .LVU109
 494 0000 2DE9F04F 		push	{r4, r5, r6, r7, r8, r9, r10, fp, lr}
 495              	.LCFI11:
 496              		.cfi_def_cfa_offset 36
 497              		.cfi_offset 4, -36
 498              		.cfi_offset 5, -32
 499              		.cfi_offset 6, -28
 500              		.cfi_offset 7, -24
 501              		.cfi_offset 8, -20
 502              		.cfi_offset 9, -16
 503              		.cfi_offset 10, -12
 504              		.cfi_offset 11, -8
 505              		.cfi_offset 14, -4
 506 0004 87B0     		sub	sp, sp, #28
 507              	.LCFI12:
 508              		.cfi_def_cfa_offset 64
 509 0006 9246     		mov	r10, r2
 510 0008 9946     		mov	r9, r3
 178:Core/Src/adf4351.c **** 	struct adf4350_platform_data *pdata = st->pdata;
 511              		.loc 1 178 2 is_stmt 1 view .LVU110
 512              		.loc 1 178 32 is_stmt 0 view .LVU111
 513 000a 0368     		ldr	r3, [r0]
 514 000c 0493     		str	r3, [sp, #16]
 515              	.LVL34:
 179:Core/Src/adf4351.c **** 	uint64_t tmp;
 516              		.loc 1 179 2 is_stmt 1 view .LVU112
 180:Core/Src/adf4351.c **** 	uint32_t div_gcd, prescaler, chspc;
 517              		.loc 1 180 2 view .LVU113
 181:Core/Src/adf4351.c **** 	uint16_t mdiv, r_cnt = 0;
 518              		.loc 1 181 2 view .LVU114
 182:Core/Src/adf4351.c **** 	uint8_t band_sel_div;
 519              		.loc 1 182 2 view .LVU115
 183:Core/Src/adf4351.c **** 	int32_t ret;
 520              		.loc 1 183 2 view .LVU116
 184:Core/Src/adf4351.c **** 
 185:Core/Src/adf4351.c **** 	if ((freq > ADF4350_MAX_OUT_FREQ) || (freq < ADF4350_MIN_OUT_FREQ))
 521              		.loc 1 185 2 view .LVU117
 522              		.loc 1 185 36 is_stmt 0 view .LVU118
 523 000e 864B     		ldr	r3, .L63
 524              	.LVL35:
 525              		.loc 1 185 36 view .LVU119
 526 0010 D318     		adds	r3, r2, r3
 527 0012 69F10002 		sbc	r2, r9, #0
 528              	.LVL36:
 529              		.loc 1 185 5 view .LVU120
 530 0016 8549     		ldr	r1, .L63+4
 531 0018 9942     		cmp	r1, r3
 532 001a 4FF00103 		mov	r3, #1
 533 001e 9341     		sbcs	r3, r3, r2
 534 0020 C0F0FD80 		bcc	.L56
 535 0024 0546     		mov	r5, r0
 186:Core/Src/adf4351.c **** 		return -1;
 187:Core/Src/adf4351.c **** 
 188:Core/Src/adf4351.c **** 	if (freq > ADF4350_MAX_FREQ_45_PRESC) {
 536              		.loc 1 188 2 is_stmt 1 view .LVU121
 537              		.loc 1 188 5 is_stmt 0 view .LVU122
 538 0026 824B     		ldr	r3, .L63+8
ARM GAS  C:\Users\ardav\AppData\Local\Temp\cc37iM3u.s 			page 14


 539 0028 5345     		cmp	r3, r10
 540 002a 4FF00003 		mov	r3, #0
 541 002e 73EB0903 		sbcs	r3, r3, r9
 542 0032 07D2     		bcs	.L57
 189:Core/Src/adf4351.c **** 		prescaler = ADF4350_REG1_PRESCALER;
 190:Core/Src/adf4351.c **** 		mdiv = 75;
 543              		.loc 1 190 8 view .LVU123
 544 0034 4B23     		movs	r3, #75
 545 0036 0393     		str	r3, [sp, #12]
 189:Core/Src/adf4351.c **** 		prescaler = ADF4350_REG1_PRESCALER;
 546              		.loc 1 189 13 view .LVU124
 547 0038 4FF00063 		mov	r3, #134217728
 548 003c 0593     		str	r3, [sp, #20]
 549              	.L41:
 550              	.LVL37:
 191:Core/Src/adf4351.c **** 	}
 192:Core/Src/adf4351.c **** 	else
 193:Core/Src/adf4351.c **** 	{
 194:Core/Src/adf4351.c **** 		prescaler = 0;
 195:Core/Src/adf4351.c **** 		mdiv = 23;
 196:Core/Src/adf4351.c **** 	}
 197:Core/Src/adf4351.c **** 
 198:Core/Src/adf4351.c **** 	st->r4_rf_div_sel = 0;
 551              		.loc 1 198 2 is_stmt 1 view .LVU125
 552              		.loc 1 198 20 is_stmt 0 view .LVU126
 553 003e 0023     		movs	r3, #0
 554 0040 2B62     		str	r3, [r5, #32]
 199:Core/Src/adf4351.c **** 
 200:Core/Src/adf4351.c **** 	while (freq < ADF4350_MIN_VCO_FREQ)
 555              		.loc 1 200 2 is_stmt 1 view .LVU127
 556              		.loc 1 200 8 is_stmt 0 view .LVU128
 557 0042 0BE0     		b	.L42
 558              	.LVL38:
 559              	.L57:
 195:Core/Src/adf4351.c **** 	}
 560              		.loc 1 195 8 view .LVU129
 561 0044 1723     		movs	r3, #23
 562 0046 0393     		str	r3, [sp, #12]
 194:Core/Src/adf4351.c **** 		mdiv = 23;
 563              		.loc 1 194 13 view .LVU130
 564 0048 0023     		movs	r3, #0
 565 004a 0593     		str	r3, [sp, #20]
 566 004c F7E7     		b	.L41
 567              	.LVL39:
 568              	.L43:
 201:Core/Src/adf4351.c **** 	{
 202:Core/Src/adf4351.c **** 		freq <<= 1;
 569              		.loc 1 202 3 is_stmt 1 view .LVU131
 570              		.loc 1 202 8 is_stmt 0 view .LVU132
 571 004e 1AEB0A0A 		adds	r10, r10, r10
 572              	.LVL40:
 573              		.loc 1 202 8 view .LVU133
 574 0052 49EB0909 		adc	r9, r9, r9
 575              	.LVL41:
 203:Core/Src/adf4351.c **** 		st->r4_rf_div_sel++;
 576              		.loc 1 203 3 is_stmt 1 view .LVU134
 577              		.loc 1 203 5 is_stmt 0 view .LVU135
ARM GAS  C:\Users\ardav\AppData\Local\Temp\cc37iM3u.s 			page 15


 578 0056 2B6A     		ldr	r3, [r5, #32]
 579              		.loc 1 203 20 view .LVU136
 580 0058 0133     		adds	r3, r3, #1
 581 005a 2B62     		str	r3, [r5, #32]
 582              	.LVL42:
 583              	.L42:
 200:Core/Src/adf4351.c **** 	{
 584              		.loc 1 200 14 is_stmt 1 view .LVU137
 585 005c 754B     		ldr	r3, .L63+12
 586 005e 5345     		cmp	r3, r10
 587 0060 4FF00003 		mov	r3, #0
 588 0064 73EB0903 		sbcs	r3, r3, r9
 589 0068 F1D2     		bcs	.L43
 204:Core/Src/adf4351.c **** 	}
 205:Core/Src/adf4351.c **** 
 206:Core/Src/adf4351.c **** 	/*
 207:Core/Src/adf4351.c **** 	 * Allow a predefined reference division factor
 208:Core/Src/adf4351.c **** 	 * if not set, compute our own
 209:Core/Src/adf4351.c **** 	 */
 210:Core/Src/adf4351.c **** 	if (pdata->ref_div_factor)
 590              		.loc 1 210 2 view .LVU138
 591              		.loc 1 210 11 is_stmt 0 view .LVU139
 592 006a 049B     		ldr	r3, [sp, #16]
 593 006c 1C8A     		ldrh	r4, [r3, #16]
 594              		.loc 1 210 5 view .LVU140
 595 006e 0CB1     		cbz	r4, .L44
 211:Core/Src/adf4351.c **** 		r_cnt = pdata->ref_div_factor - 1;
 596              		.loc 1 211 3 is_stmt 1 view .LVU141
 597              		.loc 1 211 9 is_stmt 0 view .LVU142
 598 0070 013C     		subs	r4, r4, #1
 599 0072 A4B2     		uxth	r4, r4
 600              	.LVL43:
 601              	.L44:
 212:Core/Src/adf4351.c **** 
 213:Core/Src/adf4351.c **** 	chspc = st->chspc;
 602              		.loc 1 213 2 is_stmt 1 view .LVU143
 603              		.loc 1 213 8 is_stmt 0 view .LVU144
 604 0074 D5F80880 		ldr	r8, [r5, #8]
 605              	.LVL44:
 606              		.loc 1 213 8 view .LVU145
 607 0078 24E0     		b	.L45
 608              	.LVL45:
 609              	.L47:
 214:Core/Src/adf4351.c **** 
 215:Core/Src/adf4351.c **** 	do
 216:Core/Src/adf4351.c **** 	{
 217:Core/Src/adf4351.c **** 		do
 218:Core/Src/adf4351.c **** 		{
 219:Core/Src/adf4351.c **** 			do
 220:Core/Src/adf4351.c **** 			{
 221:Core/Src/adf4351.c **** 				r_cnt = adf4350_tune_r_cnt(st, r_cnt);
 222:Core/Src/adf4351.c **** 						st->r1_mod = st->fpfd / chspc;
 223:Core/Src/adf4351.c **** 						if (r_cnt > ADF4350_MAX_R_CNT)
 224:Core/Src/adf4351.c **** 						{
 225:Core/Src/adf4351.c **** 							/* try higher spacing values */
 226:Core/Src/adf4351.c **** 							chspc++;
 227:Core/Src/adf4351.c **** 							r_cnt = 0;
ARM GAS  C:\Users\ardav\AppData\Local\Temp\cc37iM3u.s 			page 16


 228:Core/Src/adf4351.c **** 						}
 229:Core/Src/adf4351.c **** 			} while ((st->r1_mod > ADF4350_MAX_MODULUS) && r_cnt);
 230:Core/Src/adf4351.c **** 		} while (r_cnt == 0);
 610              		.loc 1 230 18 is_stmt 1 view .LVU146
 611 007a 1CB3     		cbz	r4, .L45
 231:Core/Src/adf4351.c **** 
 232:Core/Src/adf4351.c **** 
 233:Core/Src/adf4351.c **** 		tmp = freq * (uint64_t)st->r1_mod + (st->fpfd > 1);
 612              		.loc 1 233 3 view .LVU147
 613              		.loc 1 233 16 is_stmt 0 view .LVU148
 614 007c 4FF0000B 		mov	fp, #0
 615              		.loc 1 233 14 view .LVU149
 616 0080 A6FB0A01 		umull	r0, r1, r6, r10
 617 0084 06FB0911 		mla	r1, r6, r9, r1
 618              		.loc 1 233 49 view .LVU150
 619 0088 012F     		cmp	r7, #1
 620 008a 94BF     		ite	ls
 621 008c 0023     		movls	r3, #0
 622 008e 0123     		movhi	r3, #1
 623              		.loc 1 233 7 view .LVU151
 624 0090 C018     		adds	r0, r0, r3
 625              	.LVL46:
 234:Core/Src/adf4351.c **** 
 235:Core/Src/adf4351.c **** 		tmp = (tmp / st->fpfd);	/* Div round closest (n + d/2)/d */
 626              		.loc 1 235 3 is_stmt 1 view .LVU152
 627              		.loc 1 235 7 is_stmt 0 view .LVU153
 628 0092 3A46     		mov	r2, r7
 629 0094 5B46     		mov	r3, fp
 630 0096 41F10001 		adc	r1, r1, #0
 631              	.LVL47:
 632              		.loc 1 235 7 view .LVU154
 633 009a FFF7FEFF 		bl	__aeabi_uldivmod
 634              	.LVL48:
 635              		.loc 1 235 7 view .LVU155
 636 009e 0090     		str	r0, [sp]
 637 00a0 0191     		str	r1, [sp, #4]
 638              	.LVL49:
 236:Core/Src/adf4351.c **** 
 237:Core/Src/adf4351.c **** 		st->r0_fract = tmp % st->r1_mod;
 639              		.loc 1 237 3 is_stmt 1 view .LVU156
 640              		.loc 1 237 22 is_stmt 0 view .LVU157
 641 00a2 3246     		mov	r2, r6
 642 00a4 5B46     		mov	r3, fp
 643 00a6 FFF7FEFF 		bl	__aeabi_uldivmod
 644              	.LVL50:
 645              		.loc 1 237 16 view .LVU158
 646 00aa 0292     		str	r2, [sp, #8]
 647 00ac 6A61     		str	r2, [r5, #20]
 238:Core/Src/adf4351.c **** 		tmp = tmp / st->r1_mod;
 648              		.loc 1 238 3 is_stmt 1 view .LVU159
 649              		.loc 1 238 7 is_stmt 0 view .LVU160
 650 00ae 3246     		mov	r2, r6
 651 00b0 5B46     		mov	r3, fp
 652 00b2 0098     		ldr	r0, [sp]
 653 00b4 0199     		ldr	r1, [sp, #4]
 654 00b6 FFF7FEFF 		bl	__aeabi_uldivmod
 655              	.LVL51:
ARM GAS  C:\Users\ardav\AppData\Local\Temp\cc37iM3u.s 			page 17


 239:Core/Src/adf4351.c **** 
 240:Core/Src/adf4351.c **** 		st->r0_int = tmp;
 656              		.loc 1 240 3 is_stmt 1 view .LVU161
 657              		.loc 1 240 14 is_stmt 0 view .LVU162
 658 00ba 8346     		mov	fp, r0
 659 00bc A861     		str	r0, [r5, #24]
 241:Core/Src/adf4351.c **** 	} while (mdiv > st->r0_int);
 660              		.loc 1 241 16 is_stmt 1 view .LVU163
 661 00be 039B     		ldr	r3, [sp, #12]
 662 00c0 9842     		cmp	r0, r3
 663 00c2 14D2     		bcs	.L61
 664              	.LVL52:
 665              	.L45:
 215:Core/Src/adf4351.c **** 	{
 666              		.loc 1 215 2 view .LVU164
 217:Core/Src/adf4351.c **** 		{
 667              		.loc 1 217 3 view .LVU165
 219:Core/Src/adf4351.c **** 			{
 668              		.loc 1 219 4 view .LVU166
 221:Core/Src/adf4351.c **** 						st->r1_mod = st->fpfd / chspc;
 669              		.loc 1 221 5 view .LVU167
 221:Core/Src/adf4351.c **** 						st->r1_mod = st->fpfd / chspc;
 670              		.loc 1 221 13 is_stmt 0 view .LVU168
 671 00c4 2146     		mov	r1, r4
 672 00c6 2846     		mov	r0, r5
 673 00c8 FFF7FEFF 		bl	adf4350_tune_r_cnt
 674              	.LVL53:
 221:Core/Src/adf4351.c **** 						st->r1_mod = st->fpfd / chspc;
 675              		.loc 1 221 11 view .LVU169
 676 00cc 84B2     		uxth	r4, r0
 677              	.LVL54:
 222:Core/Src/adf4351.c **** 						if (r_cnt > ADF4350_MAX_R_CNT)
 678              		.loc 1 222 7 is_stmt 1 view .LVU170
 222:Core/Src/adf4351.c **** 						if (r_cnt > ADF4350_MAX_R_CNT)
 679              		.loc 1 222 22 is_stmt 0 view .LVU171
 680 00ce EF68     		ldr	r7, [r5, #12]
 222:Core/Src/adf4351.c **** 						if (r_cnt > ADF4350_MAX_R_CNT)
 681              		.loc 1 222 29 view .LVU172
 682 00d0 B7FBF8F6 		udiv	r6, r7, r8
 222:Core/Src/adf4351.c **** 						if (r_cnt > ADF4350_MAX_R_CNT)
 683              		.loc 1 222 18 view .LVU173
 684 00d4 EE61     		str	r6, [r5, #28]
 223:Core/Src/adf4351.c **** 						{
 685              		.loc 1 223 7 is_stmt 1 view .LVU174
 223:Core/Src/adf4351.c **** 						{
 686              		.loc 1 223 10 is_stmt 0 view .LVU175
 687 00d6 B4F5806F 		cmp	r4, #1024
 688 00da 02D3     		bcc	.L46
 226:Core/Src/adf4351.c **** 							r_cnt = 0;
 689              		.loc 1 226 8 is_stmt 1 view .LVU176
 226:Core/Src/adf4351.c **** 							r_cnt = 0;
 690              		.loc 1 226 13 is_stmt 0 view .LVU177
 691 00dc 08F10108 		add	r8, r8, #1
 692              	.LVL55:
 227:Core/Src/adf4351.c **** 						}
 693              		.loc 1 227 8 is_stmt 1 view .LVU178
 227:Core/Src/adf4351.c **** 						}
ARM GAS  C:\Users\ardav\AppData\Local\Temp\cc37iM3u.s 			page 18


 694              		.loc 1 227 14 is_stmt 0 view .LVU179
 695 00e0 0024     		movs	r4, #0
 696              	.LVL56:
 697              	.L46:
 229:Core/Src/adf4351.c **** 		} while (r_cnt == 0);
 698              		.loc 1 229 48 is_stmt 1 view .LVU180
 699 00e2 B6F5805F 		cmp	r6, #4096
 700 00e6 C8D3     		bcc	.L47
 229:Core/Src/adf4351.c **** 		} while (r_cnt == 0);
 701              		.loc 1 229 48 is_stmt 0 discriminator 1 view .LVU181
 702 00e8 002C     		cmp	r4, #0
 703 00ea EBD1     		bne	.L45
 704 00ec C5E7     		b	.L47
 705              	.LVL57:
 706              	.L61:
 242:Core/Src/adf4351.c **** 
 243:Core/Src/adf4351.c **** 	band_sel_div = st->fpfd % ADF4350_MAX_BANDSEL_CLK > ADF4350_MAX_BANDSEL_CLK / 2 ?
 707              		.loc 1 243 2 is_stmt 1 view .LVU182
 708              		.loc 1 243 26 is_stmt 0 view .LVU183
 709 00ee 524B     		ldr	r3, .L63+16
 710 00f0 A3FB0723 		umull	r2, r3, r3, r7
 711 00f4 DB0B     		lsrs	r3, r3, #15
 712 00f6 514A     		ldr	r2, .L63+20
 713 00f8 02FB1373 		mls	r3, r2, r3, r7
 714              		.loc 1 243 15 view .LVU184
 715 00fc 4FF22442 		movw	r2, #62500
 716 0100 9342     		cmp	r3, r2
 717 0102 15D9     		bls	.L49
 244:Core/Src/adf4351.c **** 					st->fpfd / ADF4350_MAX_BANDSEL_CLK + 1 :
 718              		.loc 1 244 15 discriminator 1 view .LVU185
 719 0104 4C4B     		ldr	r3, .L63+16
 720 0106 A3FB0773 		umull	r7, r3, r3, r7
 721              		.loc 1 244 41 discriminator 1 view .LVU186
 722 010a C3F3C733 		ubfx	r3, r3, #15, #8
 243:Core/Src/adf4351.c **** 					st->fpfd / ADF4350_MAX_BANDSEL_CLK + 1 :
 723              		.loc 1 243 15 discriminator 1 view .LVU187
 724 010e 0133     		adds	r3, r3, #1
 725 0110 DFB2     		uxtb	r7, r3
 726              	.L50:
 727              	.LVL58:
 245:Core/Src/adf4351.c **** 					st->fpfd / ADF4350_MAX_BANDSEL_CLK;
 246:Core/Src/adf4351.c **** 
 247:Core/Src/adf4351.c **** 	if (st->r0_fract && st->r1_mod) {
 728              		.loc 1 247 2 is_stmt 1 discriminator 4 view .LVU188
 729              		.loc 1 247 5 is_stmt 0 discriminator 4 view .LVU189
 730 0112 029B     		ldr	r3, [sp, #8]
 731 0114 93B1     		cbz	r3, .L51
 732              		.loc 1 247 19 discriminator 1 view .LVU190
 733 0116 8EB1     		cbz	r6, .L51
 248:Core/Src/adf4351.c **** 		div_gcd = gcd(st->r1_mod, st->r0_fract);
 734              		.loc 1 248 3 is_stmt 1 view .LVU191
 735              		.loc 1 248 13 is_stmt 0 view .LVU192
 736 0118 9846     		mov	r8, r3
 737              	.LVL59:
 738              		.loc 1 248 13 view .LVU193
 739 011a 1946     		mov	r1, r3
 740              	.LVL60:
ARM GAS  C:\Users\ardav\AppData\Local\Temp\cc37iM3u.s 			page 19


 741              		.loc 1 248 13 view .LVU194
 742 011c 3046     		mov	r0, r6
 743              		.loc 1 248 13 view .LVU195
 744 011e FFF7FEFF 		bl	gcd
 745              	.LVL61:
 249:Core/Src/adf4351.c **** 		st->r1_mod /= div_gcd;
 746              		.loc 1 249 3 is_stmt 1 view .LVU196
 747              		.loc 1 249 14 is_stmt 0 view .LVU197
 748 0122 B6FBF0F6 		udiv	r6, r6, r0
 749 0126 EE61     		str	r6, [r5, #28]
 250:Core/Src/adf4351.c **** 		st->r0_fract /= div_gcd;
 750              		.loc 1 250 3 is_stmt 1 view .LVU198
 751              		.loc 1 250 16 is_stmt 0 view .LVU199
 752 0128 B8FBF0F0 		udiv	r0, r8, r0
 753              	.LVL62:
 754              		.loc 1 250 16 view .LVU200
 755 012c 6861     		str	r0, [r5, #20]
 756 012e 09E0     		b	.L52
 757              	.LVL63:
 758              	.L49:
 245:Core/Src/adf4351.c **** 
 759              		.loc 1 245 15 discriminator 2 view .LVU201
 760 0130 414B     		ldr	r3, .L63+16
 761 0132 A3FB0737 		umull	r3, r7, r3, r7
 243:Core/Src/adf4351.c **** 					st->fpfd / ADF4350_MAX_BANDSEL_CLK + 1 :
 762              		.loc 1 243 15 discriminator 2 view .LVU202
 763 0136 C7F3C737 		ubfx	r7, r7, #15, #8
 764 013a EAE7     		b	.L50
 765              	.LVL64:
 766              	.L51:
 251:Core/Src/adf4351.c **** 	}
 252:Core/Src/adf4351.c **** 	else
 253:Core/Src/adf4351.c **** 	{
 254:Core/Src/adf4351.c **** 		st->r0_fract = 0;
 767              		.loc 1 254 3 is_stmt 1 view .LVU203
 768              		.loc 1 254 16 is_stmt 0 view .LVU204
 769 013c 0023     		movs	r3, #0
 770 013e 6B61     		str	r3, [r5, #20]
 255:Core/Src/adf4351.c **** 		st->r1_mod = 1;
 771              		.loc 1 255 3 is_stmt 1 view .LVU205
 772              		.loc 1 255 14 is_stmt 0 view .LVU206
 773 0140 0123     		movs	r3, #1
 774 0142 EB61     		str	r3, [r5, #28]
 775              	.LVL65:
 776              	.L52:
 256:Core/Src/adf4351.c **** 	}
 257:Core/Src/adf4351.c **** 
 258:Core/Src/adf4351.c **** 	st->regs[ADF4350_REG0] = ADF4350_REG0_INT(st->r0_int) |
 777              		.loc 1 258 2 is_stmt 1 view .LVU207
 778              		.loc 1 258 27 is_stmt 0 view .LVU208
 779 0144 3E4A     		ldr	r2, .L63+24
 780 0146 02EACB32 		and	r2, r2, fp, lsl #15
 259:Core/Src/adf4351.c **** 				 ADF4350_REG0_FRACT(st->r0_fract);
 781              		.loc 1 259 6 view .LVU209
 782 014a 6969     		ldr	r1, [r5, #20]
 783 014c 47F6F873 		movw	r3, #32760
 784 0150 03EAC101 		and	r1, r3, r1, lsl #3
ARM GAS  C:\Users\ardav\AppData\Local\Temp\cc37iM3u.s 			page 20


 258:Core/Src/adf4351.c **** 				 ADF4350_REG0_FRACT(st->r0_fract);
 785              		.loc 1 258 56 view .LVU210
 786 0154 0A43     		orrs	r2, r2, r1
 258:Core/Src/adf4351.c **** 				 ADF4350_REG0_FRACT(st->r0_fract);
 787              		.loc 1 258 25 view .LVU211
 788 0156 6A62     		str	r2, [r5, #36]
 260:Core/Src/adf4351.c **** 
 261:Core/Src/adf4351.c **** 	st->regs[ADF4350_REG1] = ADF4350_REG1_PHASE(1) |
 789              		.loc 1 261 2 is_stmt 1 view .LVU212
 262:Core/Src/adf4351.c **** 				 ADF4350_REG1_MOD(st->r1_mod) |
 790              		.loc 1 262 6 is_stmt 0 view .LVU213
 791 0158 EA69     		ldr	r2, [r5, #28]
 792 015a 03EAC203 		and	r3, r3, r2, lsl #3
 793              		.loc 1 262 35 view .LVU214
 794 015e 059A     		ldr	r2, [sp, #20]
 795 0160 1343     		orrs	r3, r3, r2
 796 0162 43F40043 		orr	r3, r3, #32768
 261:Core/Src/adf4351.c **** 				 ADF4350_REG1_MOD(st->r1_mod) |
 797              		.loc 1 261 25 view .LVU215
 798 0166 AB62     		str	r3, [r5, #40]
 263:Core/Src/adf4351.c **** 				 prescaler;
 264:Core/Src/adf4351.c **** 
 265:Core/Src/adf4351.c **** 	st->regs[ADF4350_REG2] =
 799              		.loc 1 265 2 is_stmt 1 view .LVU216
 266:Core/Src/adf4351.c **** 		ADF4350_REG2_10BIT_R_CNT(r_cnt) |
 800              		.loc 1 266 3 is_stmt 0 view .LVU217
 801 0168 A303     		lsls	r3, r4, #14
 802              		.loc 1 266 35 view .LVU218
 803 016a 43F40053 		orr	r3, r3, #8192
 267:Core/Src/adf4351.c **** 		ADF4350_REG2_DOUBLE_BUFF_EN |
 268:Core/Src/adf4351.c **** 		(pdata->ref_doubler_en ? ADF4350_REG2_RMULT2_EN : 0) |
 804              		.loc 1 268 9 view .LVU219
 805 016e 049A     		ldr	r2, [sp, #16]
 806 0170 927C     		ldrb	r2, [r2, #18]	@ zero_extendqisi2
 807              		.loc 1 268 51 view .LVU220
 808 0172 002A     		cmp	r2, #0
 809 0174 4CD0     		beq	.L58
 810 0176 4FF00072 		mov	r2, #33554432
 811              	.L53:
 267:Core/Src/adf4351.c **** 		ADF4350_REG2_DOUBLE_BUFF_EN |
 812              		.loc 1 267 31 view .LVU221
 813 017a 1343     		orrs	r3, r3, r2
 269:Core/Src/adf4351.c **** 		(pdata->ref_div2_en ? ADF4350_REG2_RDIV2_EN : 0) |
 814              		.loc 1 269 9 view .LVU222
 815 017c 049A     		ldr	r2, [sp, #16]
 816 017e D27C     		ldrb	r2, [r2, #19]	@ zero_extendqisi2
 817              		.loc 1 269 47 view .LVU223
 818 0180 002A     		cmp	r2, #0
 819 0182 47D0     		beq	.L59
 820 0184 4FF08072 		mov	r2, #16777216
 821              	.L54:
 268:Core/Src/adf4351.c **** 		(pdata->ref_div2_en ? ADF4350_REG2_RDIV2_EN : 0) |
 822              		.loc 1 268 56 view .LVU224
 823 0188 1343     		orrs	r3, r3, r2
 270:Core/Src/adf4351.c **** 		(pdata->r2_user_settings & (ADF4350_REG2_PD_POLARITY_POS |
 824              		.loc 1 270 9 view .LVU225
 825 018a 0499     		ldr	r1, [sp, #16]
ARM GAS  C:\Users\ardav\AppData\Local\Temp\cc37iM3u.s 			page 21


 826 018c 4A69     		ldr	r2, [r1, #20]
 827              		.loc 1 270 28 view .LVU226
 828 018e 22F04342 		bic	r2, r2, #-1023410176
 829 0192 22F47F02 		bic	r2, r2, #16711680
 830 0196 22F46042 		bic	r2, r2, #57344
 831 019a 22F03F02 		bic	r2, r2, #63
 269:Core/Src/adf4351.c **** 		(pdata->ref_div2_en ? ADF4350_REG2_RDIV2_EN : 0) |
 832              		.loc 1 269 52 view .LVU227
 833 019e 1343     		orrs	r3, r3, r2
 265:Core/Src/adf4351.c **** 		ADF4350_REG2_10BIT_R_CNT(r_cnt) |
 834              		.loc 1 265 25 view .LVU228
 835 01a0 EB62     		str	r3, [r5, #44]
 271:Core/Src/adf4351.c **** 		ADF4350_REG2_LDP_6ns | ADF4350_REG2_LDF_INT_N |
 272:Core/Src/adf4351.c **** 		ADF4350_REG2_CHARGE_PUMP_CURR_uA(5000) |
 273:Core/Src/adf4351.c **** 		ADF4350_REG2_MUXOUT(0x7) | ADF4350_REG2_NOISE_MODE(0x9)));
 274:Core/Src/adf4351.c **** 
 275:Core/Src/adf4351.c **** 	st->regs[ADF4350_REG3] = pdata->r3_user_settings &
 836              		.loc 1 275 2 is_stmt 1 view .LVU229
 837              		.loc 1 275 32 is_stmt 0 view .LVU230
 838 01a2 8B69     		ldr	r3, [r1, #24]
 839              		.loc 1 275 51 view .LVU231
 840 01a4 23F07F43 		bic	r3, r3, #-16777216
 841 01a8 23F47803 		bic	r3, r3, #16252928
 842 01ac 23F40043 		bic	r3, r3, #32768
 843 01b0 23F00703 		bic	r3, r3, #7
 844              		.loc 1 275 25 view .LVU232
 845 01b4 2B63     		str	r3, [r5, #48]
 276:Core/Src/adf4351.c **** 				 (ADF4350_REG3_12BIT_CLKDIV(0xFFF) |
 277:Core/Src/adf4351.c **** 				 ADF4350_REG3_12BIT_CLKDIV_MODE(0x3) |
 278:Core/Src/adf4351.c **** 				 ADF4350_REG3_12BIT_CSR_EN);
 279:Core/Src/adf4351.c **** 
 280:Core/Src/adf4351.c **** 	st->regs[ADF4350_REG4] =
 846              		.loc 1 280 2 is_stmt 1 view .LVU233
 281:Core/Src/adf4351.c **** 		ADF4350_REG4_FEEDBACK_FUND |
 282:Core/Src/adf4351.c **** 		ADF4350_REG4_RF_DIV_SEL(st->r4_rf_div_sel) |
 847              		.loc 1 282 3 is_stmt 0 view .LVU234
 848 01b6 2A6A     		ldr	r2, [r5, #32]
 283:Core/Src/adf4351.c **** 		ADF4350_REG4_8BIT_BAND_SEL_CLKDIV(band_sel_div) |
 849              		.loc 1 283 3 view .LVU235
 850 01b8 3B03     		lsls	r3, r7, #12
 282:Core/Src/adf4351.c **** 		ADF4350_REG4_8BIT_BAND_SEL_CLKDIV(band_sel_div) |
 851              		.loc 1 282 46 view .LVU236
 852 01ba 43EA0253 		orr	r3, r3, r2, lsl #20
 284:Core/Src/adf4351.c **** 		ADF4350_REG4_RF_OUT_EN |
 285:Core/Src/adf4351.c **** 		(pdata->r4_user_settings &
 853              		.loc 1 285 9 view .LVU237
 854 01be CA69     		ldr	r2, [r1, #28]
 855              		.loc 1 285 28 view .LVU238
 856 01c0 02F4FB62 		and	r2, r2, #2008
 284:Core/Src/adf4351.c **** 		ADF4350_REG4_RF_OUT_EN |
 857              		.loc 1 284 26 view .LVU239
 858 01c4 1343     		orrs	r3, r3, r2
 859 01c6 43F40003 		orr	r3, r3, #8388608
 860 01ca 43F02003 		orr	r3, r3, #32
 280:Core/Src/adf4351.c **** 		ADF4350_REG4_FEEDBACK_FUND |
 861              		.loc 1 280 25 view .LVU240
 862 01ce 6B63     		str	r3, [r5, #52]
ARM GAS  C:\Users\ardav\AppData\Local\Temp\cc37iM3u.s 			page 22


 286:Core/Src/adf4351.c **** 		(ADF4350_REG4_OUTPUT_PWR(0x3) |
 287:Core/Src/adf4351.c **** 		ADF4350_REG4_AUX_OUTPUT_PWR(0x3) |
 288:Core/Src/adf4351.c **** 		ADF4350_REG4_AUX_OUTPUT_EN |
 289:Core/Src/adf4351.c **** 		ADF4350_REG4_AUX_OUTPUT_FUND |
 290:Core/Src/adf4351.c **** 		ADF4350_REG4_MUTE_TILL_LOCK_EN));
 291:Core/Src/adf4351.c **** 
 292:Core/Src/adf4351.c **** 	st->regs[ADF4350_REG5] = ADF4350_REG5_LD_PIN_MODE_DIGITAL | 0x00180000;
 863              		.loc 1 292 2 is_stmt 1 view .LVU241
 864              		.loc 1 292 25 is_stmt 0 view .LVU242
 865 01d0 4FF4B003 		mov	r3, #5767168
 866 01d4 AB63     		str	r3, [r5, #56]
 293:Core/Src/adf4351.c **** 
 294:Core/Src/adf4351.c **** 	ret = adf4350_sync_config(st);
 867              		.loc 1 294 2 is_stmt 1 view .LVU243
 868              		.loc 1 294 8 is_stmt 0 view .LVU244
 869 01d6 2846     		mov	r0, r5
 870 01d8 FFF7FEFF 		bl	adf4350_sync_config
 871              	.LVL66:
 295:Core/Src/adf4351.c **** 	if(ret < 0)
 872              		.loc 1 295 2 is_stmt 1 view .LVU245
 873              		.loc 1 295 4 is_stmt 0 view .LVU246
 874 01dc 011E     		subs	r1, r0, #0
 875 01de 1BDB     		blt	.L62
 296:Core/Src/adf4351.c **** 	{
 297:Core/Src/adf4351.c **** 		return ret;
 298:Core/Src/adf4351.c **** 	}
 299:Core/Src/adf4351.c **** 
 300:Core/Src/adf4351.c ****     tmp = (uint64_t)((st->r0_int * st->r1_mod) + st->r0_fract) * (uint64_t)st->fpfd;
 876              		.loc 1 300 5 is_stmt 1 view .LVU247
 877              		.loc 1 300 25 is_stmt 0 view .LVU248
 878 01e0 AB69     		ldr	r3, [r5, #24]
 879              		.loc 1 300 38 view .LVU249
 880 01e2 EA69     		ldr	r2, [r5, #28]
 881              		.loc 1 300 52 view .LVU250
 882 01e4 6969     		ldr	r1, [r5, #20]
 883              		.loc 1 300 48 view .LVU251
 884 01e6 02FB0311 		mla	r1, r2, r3, r1
 885              		.loc 1 300 78 view .LVU252
 886 01ea E868     		ldr	r0, [r5, #12]
 887              	.LVL67:
 301:Core/Src/adf4351.c ****     tmp = tmp / ((uint64_t)st->r1_mod * ((uint64_t)1 << st->r4_rf_div_sel));
 888              		.loc 1 301 5 is_stmt 1 view .LVU253
 889              		.loc 1 301 59 is_stmt 0 view .LVU254
 890 01ec 2D6A     		ldr	r5, [r5, #32]
 891              	.LVL68:
 892              		.loc 1 301 39 view .LVU255
 893 01ee A5F12004 		sub	r4, r5, #32
 894              	.LVL69:
 895              		.loc 1 301 39 view .LVU256
 896 01f2 C5F12003 		rsb	r3, r5, #32
 897 01f6 02FA04F4 		lsl	r4, r2, r4
 898 01fa 22FA03F3 		lsr	r3, r2, r3
 899              		.loc 1 301 9 view .LVU257
 900 01fe AA40     		lsls	r2, r2, r5
 901 0200 2343     		orrs	r3, r3, r4
 902 0202 A1FB0001 		umull	r0, r1, r1, r0
 903              	.LVL70:
ARM GAS  C:\Users\ardav\AppData\Local\Temp\cc37iM3u.s 			page 23


 904              		.loc 1 301 9 view .LVU258
 905 0206 FFF7FEFF 		bl	__aeabi_uldivmod
 906              	.LVL71:
 302:Core/Src/adf4351.c **** 
 303:Core/Src/adf4351.c **** 	return tmp;
 907              		.loc 1 303 2 is_stmt 1 view .LVU259
 908              	.L39:
 304:Core/Src/adf4351.c **** }
 909              		.loc 1 304 1 is_stmt 0 view .LVU260
 910 020a 07B0     		add	sp, sp, #28
 911              	.LCFI13:
 912              		.cfi_remember_state
 913              		.cfi_def_cfa_offset 36
 914              		@ sp needed
 915 020c BDE8F08F 		pop	{r4, r5, r6, r7, r8, r9, r10, fp, pc}
 916              	.LVL72:
 917              	.L58:
 918              	.LCFI14:
 919              		.cfi_restore_state
 268:Core/Src/adf4351.c **** 		(pdata->ref_div2_en ? ADF4350_REG2_RDIV2_EN : 0) |
 920              		.loc 1 268 51 view .LVU261
 921 0210 0022     		movs	r2, #0
 922 0212 B2E7     		b	.L53
 923              	.L59:
 269:Core/Src/adf4351.c **** 		(pdata->r2_user_settings & (ADF4350_REG2_PD_POLARITY_POS |
 924              		.loc 1 269 47 view .LVU262
 925 0214 0022     		movs	r2, #0
 926 0216 B7E7     		b	.L54
 927              	.LVL73:
 928              	.L62:
 297:Core/Src/adf4351.c **** 	}
 929              		.loc 1 297 3 is_stmt 1 view .LVU263
 297:Core/Src/adf4351.c **** 	}
 930              		.loc 1 297 10 is_stmt 0 view .LVU264
 931 0218 0846     		mov	r0, r1
 932              	.LVL74:
 297:Core/Src/adf4351.c **** 	}
 933              		.loc 1 297 10 view .LVU265
 934 021a C917     		asrs	r1, r1, #31
 935              	.LVL75:
 297:Core/Src/adf4351.c **** 	}
 936              		.loc 1 297 10 view .LVU266
 937 021c F5E7     		b	.L39
 938              	.LVL76:
 939              	.L56:
 186:Core/Src/adf4351.c **** 
 940              		.loc 1 186 10 view .LVU267
 941 021e 4FF0FF30 		mov	r0, #-1
 942              	.LVL77:
 186:Core/Src/adf4351.c **** 
 943              		.loc 1 186 10 view .LVU268
 944 0222 0146     		mov	r1, r0
 945 0224 F1E7     		b	.L39
 946              	.L64:
 947 0226 00BF     		.align	2
 948              	.L63:
 949 0228 A87AF3FD 		.word	-34375000
ARM GAS  C:\Users\ardav\AppData\Local\Temp\cc37iM3u.s 			page 24


 950 022c A8263604 		.word	70657704
 951 0230 005ED0B2 		.word	-1294967296
 952 0234 FF552183 		.word	-2094967297
 953 0238 83DE1B43 		.word	1125899907
 954 023c 48E80100 		.word	125000
 955 0240 0080FF7F 		.word	2147450880
 956              		.cfi_endproc
 957              	.LFE72:
 959              		.section	.text.adf4350_out_altvoltage0_frequency,"ax",%progbits
 960              		.align	1
 961              		.global	adf4350_out_altvoltage0_frequency
 962              		.syntax unified
 963              		.thumb
 964              		.thumb_func
 966              	adf4350_out_altvoltage0_frequency:
 967              	.LVL78:
 968              	.LFB74:
 305:Core/Src/adf4351.c **** 
 306:Core/Src/adf4351.c **** /***************************************************************************//**
 307:Core/Src/adf4351.c ****  * @brief Initializes the ADF4350.
 308:Core/Src/adf4351.c ****  *
 309:Core/Src/adf4351.c ****  * @param init_param  - initialization parameters struct
 310:Core/Src/adf4351.c ****  *
 311:Core/Src/adf4351.c ****  * @return Returns 0 in case of success or negative error code.
 312:Core/Src/adf4351.c **** *******************************************************************************/
 313:Core/Src/adf4351.c **** int32_t adf4350_setup(adf4350_init_param init_param)
 314:Core/Src/adf4351.c **** {
 315:Core/Src/adf4351.c **** 	struct adf4350_state *st = &adf4350_st;
 316:Core/Src/adf4351.c **** 
 317:Core/Src/adf4351.c **** 	//st->pdata = (struct adf4350_platform_data *)malloc(sizeof(*st->pdata));
 318:Core/Src/adf4351.c **** 	st->pdata = &platdata; // static assign memory.
 319:Core/Src/adf4351.c **** 
 320:Core/Src/adf4351.c **** 	if (!st->pdata)
 321:Core/Src/adf4351.c **** 		return -1;
 322:Core/Src/adf4351.c **** 
 323:Core/Src/adf4351.c **** 	st->pdata->clkin = init_param.clkin;
 324:Core/Src/adf4351.c **** 
 325:Core/Src/adf4351.c **** 	st->pdata->channel_spacing = init_param.channel_spacing;
 326:Core/Src/adf4351.c **** 
 327:Core/Src/adf4351.c **** 	st->pdata->power_up_frequency = init_param.power_up_frequency;
 328:Core/Src/adf4351.c **** 	st->pdata->ref_div_factor = init_param.reference_div_factor;
 329:Core/Src/adf4351.c **** 	st->pdata->ref_doubler_en = init_param.reference_doubler_enable;
 330:Core/Src/adf4351.c **** 	st->pdata->ref_div2_en = init_param.reference_div2_enable;
 331:Core/Src/adf4351.c **** 
 332:Core/Src/adf4351.c **** 	/* r2_user_settings */
 333:Core/Src/adf4351.c **** 
 334:Core/Src/adf4351.c **** 	st->pdata->r2_user_settings = init_param.phase_detector_polarity_positive_enable ?
 335:Core/Src/adf4351.c **** 			ADF4350_REG2_PD_POLARITY_POS : 0;
 336:Core/Src/adf4351.c **** 	st->pdata->r2_user_settings |= init_param.lock_detect_precision_6ns_enable ?
 337:Core/Src/adf4351.c **** 			ADF4350_REG2_LDP_6ns : 0;
 338:Core/Src/adf4351.c **** 	st->pdata->r2_user_settings |= init_param.lock_detect_function_integer_n_enable ?
 339:Core/Src/adf4351.c **** 			ADF4350_REG2_LDF_INT_N : 0;
 340:Core/Src/adf4351.c **** 	st->pdata->r2_user_settings |= ADF4350_REG2_CHARGE_PUMP_CURR_uA(init_param.charge_pump_current);
 341:Core/Src/adf4351.c **** 	st->pdata->r2_user_settings |= ADF4350_REG2_MUXOUT(init_param.muxout_select);
 342:Core/Src/adf4351.c **** 	st->pdata->r2_user_settings |= init_param.low_spur_mode_enable ? ADF4350_REG2_NOISE_MODE(0x3) : 0;
 343:Core/Src/adf4351.c **** 
 344:Core/Src/adf4351.c **** 	/* r3_user_settings */
ARM GAS  C:\Users\ardav\AppData\Local\Temp\cc37iM3u.s 			page 25


 345:Core/Src/adf4351.c **** 
 346:Core/Src/adf4351.c **** 	st->pdata->r3_user_settings = init_param.cycle_slip_reduction_enable ?
 347:Core/Src/adf4351.c **** 			ADF4350_REG3_12BIT_CSR_EN : 0;
 348:Core/Src/adf4351.c **** 	st->pdata->r3_user_settings |= init_param.charge_cancellation_enable ?
 349:Core/Src/adf4351.c **** 			ADF4351_REG3_CHARGE_CANCELLATION_EN : 0;
 350:Core/Src/adf4351.c **** 	st->pdata->r3_user_settings |= init_param.anti_backlash_3ns_enable ?
 351:Core/Src/adf4351.c **** 			ADF4351_REG3_ANTI_BACKLASH_3ns_EN : 0;
 352:Core/Src/adf4351.c **** 	st->pdata->r3_user_settings |= init_param.band_select_clock_mode_high_enable ?
 353:Core/Src/adf4351.c **** 			ADF4351_REG3_BAND_SEL_CLOCK_MODE_HIGH : 0;
 354:Core/Src/adf4351.c **** 	st->pdata->r3_user_settings |= ADF4350_REG3_12BIT_CLKDIV(init_param.clk_divider_12bit);
 355:Core/Src/adf4351.c **** 	st->pdata->r3_user_settings |= ADF4350_REG3_12BIT_CLKDIV_MODE(init_param.clk_divider_mode);
 356:Core/Src/adf4351.c **** 
 357:Core/Src/adf4351.c **** 	/* r4_user_settings */
 358:Core/Src/adf4351.c **** 
 359:Core/Src/adf4351.c **** 	st->pdata->r4_user_settings = init_param.aux_output_enable ?
 360:Core/Src/adf4351.c **** 			ADF4350_REG4_AUX_OUTPUT_EN : 0;
 361:Core/Src/adf4351.c **** 	st->pdata->r4_user_settings |= init_param.aux_output_fundamental_enable ?
 362:Core/Src/adf4351.c **** 			ADF4350_REG4_AUX_OUTPUT_FUND : 0;
 363:Core/Src/adf4351.c **** 	st->pdata->r4_user_settings |= init_param.mute_till_lock_enable ?
 364:Core/Src/adf4351.c **** 			ADF4350_REG4_MUTE_TILL_LOCK_EN : 0;
 365:Core/Src/adf4351.c **** 	st->pdata->r4_user_settings |= ADF4350_REG4_OUTPUT_PWR(init_param.output_power);
 366:Core/Src/adf4351.c **** 	st->pdata->r4_user_settings |= ADF4350_REG4_AUX_OUTPUT_PWR(init_param.aux_output_power);
 367:Core/Src/adf4351.c **** 
 368:Core/Src/adf4351.c **** 	adf4350_out_altvoltage0_refin_frequency(st->pdata->clkin);
 369:Core/Src/adf4351.c **** 	adf4350_out_altvoltage0_frequency_resolution(st->pdata->channel_spacing);
 370:Core/Src/adf4351.c **** 	adf4350_out_altvoltage0_frequency(st->pdata->power_up_frequency);
 371:Core/Src/adf4351.c **** 
 372:Core/Src/adf4351.c **** 	//printf("ADF4350 successfully initialized.\n");
 373:Core/Src/adf4351.c **** 	/*int i;
 374:Core/Src/adf4351.c **** 	for(i=0;i<6;i++)
 375:Core/Src/adf4351.c **** 	printf("RegHw%d %x\n",i,st->regs[i]);
 376:Core/Src/adf4351.c **** 	printf("Reg2 %x\n",st->pdata->r2_user_settings);
 377:Core/Src/adf4351.c **** 	printf("Reg3 %x\n",st->pdata->r3_user_settings);
 378:Core/Src/adf4351.c **** 	printf("Reg4 %x\n",st->pdata->r4_user_settings);*/
 379:Core/Src/adf4351.c **** 
 380:Core/Src/adf4351.c ****     return 0;
 381:Core/Src/adf4351.c **** }
 382:Core/Src/adf4351.c **** 
 383:Core/Src/adf4351.c **** /***************************************************************************//**
 384:Core/Src/adf4351.c ****  * @brief Stores PLL 0 frequency in Hz.
 385:Core/Src/adf4351.c ****  *
 386:Core/Src/adf4351.c ****  * @param Hz - The selected frequency.
 387:Core/Src/adf4351.c ****  *
 388:Core/Src/adf4351.c ****  * @return Returns the selected frequency.
 389:Core/Src/adf4351.c **** *******************************************************************************/
 390:Core/Src/adf4351.c **** int64_t adf4350_out_altvoltage0_frequency(int64_t Hz)
 391:Core/Src/adf4351.c **** {
 969              		.loc 1 391 1 is_stmt 1 view -0
 970              		.cfi_startproc
 971              		@ args = 0, pretend = 0, frame = 0
 972              		@ frame_needed = 0, uses_anonymous_args = 0
 973              		.loc 1 391 1 is_stmt 0 view .LVU270
 974 0000 08B5     		push	{r3, lr}
 975              	.LCFI15:
 976              		.cfi_def_cfa_offset 8
 977              		.cfi_offset 3, -8
 978              		.cfi_offset 14, -4
ARM GAS  C:\Users\ardav\AppData\Local\Temp\cc37iM3u.s 			page 26


 979 0002 0246     		mov	r2, r0
 980 0004 0B46     		mov	r3, r1
 392:Core/Src/adf4351.c **** 	return adf4350_set_freq(&adf4350_st, Hz);
 981              		.loc 1 392 2 is_stmt 1 view .LVU271
 982              		.loc 1 392 9 is_stmt 0 view .LVU272
 983 0006 0248     		ldr	r0, .L67
 984              	.LVL79:
 985              		.loc 1 392 9 view .LVU273
 986 0008 FFF7FEFF 		bl	adf4350_set_freq
 987              	.LVL80:
 393:Core/Src/adf4351.c **** }
 988              		.loc 1 393 1 view .LVU274
 989 000c 08BD     		pop	{r3, pc}
 990              	.L68:
 991 000e 00BF     		.align	2
 992              	.L67:
 993 0010 00000000 		.word	.LANCHOR0
 994              		.cfi_endproc
 995              	.LFE74:
 997              		.section	.text.adf4350_out_altvoltage0_frequency_resolution,"ax",%progbits
 998              		.align	1
 999              		.global	adf4350_out_altvoltage0_frequency_resolution
 1000              		.syntax unified
 1001              		.thumb
 1002              		.thumb_func
 1004              	adf4350_out_altvoltage0_frequency_resolution:
 1005              	.LVL81:
 1006              	.LFB75:
 394:Core/Src/adf4351.c **** 
 395:Core/Src/adf4351.c **** /***************************************************************************//**
 396:Core/Src/adf4351.c ****  * @brief Stores PLL 0 frequency resolution/channel spacing in Hz.
 397:Core/Src/adf4351.c ****  *
 398:Core/Src/adf4351.c ****  * @param Hz - The selected frequency.
 399:Core/Src/adf4351.c ****  *
 400:Core/Src/adf4351.c ****  * @return Returns the selected frequency.
 401:Core/Src/adf4351.c **** *******************************************************************************/
 402:Core/Src/adf4351.c **** int32_t adf4350_out_altvoltage0_frequency_resolution(int32_t Hz)
 403:Core/Src/adf4351.c **** {
 1007              		.loc 1 403 1 is_stmt 1 view -0
 1008              		.cfi_startproc
 1009              		@ args = 0, pretend = 0, frame = 0
 1010              		@ frame_needed = 0, uses_anonymous_args = 0
 1011              		@ link register save eliminated.
 404:Core/Src/adf4351.c **** 	if(Hz != INT32_MAX)
 1012              		.loc 1 404 2 view .LVU276
 1013              		.loc 1 404 4 is_stmt 0 view .LVU277
 1014 0000 6FF00043 		mvn	r3, #-2147483648
 1015 0004 9842     		cmp	r0, r3
 1016 0006 01D0     		beq	.L70
 405:Core/Src/adf4351.c **** 	{
 406:Core/Src/adf4351.c **** 		adf4350_st.chspc = Hz;
 1017              		.loc 1 406 3 is_stmt 1 view .LVU278
 1018              		.loc 1 406 20 is_stmt 0 view .LVU279
 1019 0008 024B     		ldr	r3, .L71
 1020 000a 9860     		str	r0, [r3, #8]
 1021              	.L70:
 407:Core/Src/adf4351.c **** 	}
ARM GAS  C:\Users\ardav\AppData\Local\Temp\cc37iM3u.s 			page 27


 408:Core/Src/adf4351.c **** 
 409:Core/Src/adf4351.c **** 	return adf4350_st.chspc;
 1022              		.loc 1 409 2 is_stmt 1 view .LVU280
 410:Core/Src/adf4351.c **** }
 1023              		.loc 1 410 1 is_stmt 0 view .LVU281
 1024 000c 014B     		ldr	r3, .L71
 1025 000e 9868     		ldr	r0, [r3, #8]
 1026              	.LVL82:
 1027              		.loc 1 410 1 view .LVU282
 1028 0010 7047     		bx	lr
 1029              	.L72:
 1030 0012 00BF     		.align	2
 1031              	.L71:
 1032 0014 00000000 		.word	.LANCHOR0
 1033              		.cfi_endproc
 1034              	.LFE75:
 1036              		.section	.text.adf4350_out_altvoltage0_refin_frequency,"ax",%progbits
 1037              		.align	1
 1038              		.global	adf4350_out_altvoltage0_refin_frequency
 1039              		.syntax unified
 1040              		.thumb
 1041              		.thumb_func
 1043              	adf4350_out_altvoltage0_refin_frequency:
 1044              	.LVL83:
 1045              	.LFB76:
 411:Core/Src/adf4351.c **** 
 412:Core/Src/adf4351.c **** /***************************************************************************//**
 413:Core/Src/adf4351.c ****  * @brief Sets PLL 0 REFin frequency in Hz.
 414:Core/Src/adf4351.c ****  *
 415:Core/Src/adf4351.c ****  * @param Hz - The selected frequency.
 416:Core/Src/adf4351.c ****  *
 417:Core/Src/adf4351.c ****  * @return Returns the selected frequency.
 418:Core/Src/adf4351.c **** *******************************************************************************/
 419:Core/Src/adf4351.c **** int64_t adf4350_out_altvoltage0_refin_frequency(int64_t Hz)
 420:Core/Src/adf4351.c **** {
 1046              		.loc 1 420 1 is_stmt 1 view -0
 1047              		.cfi_startproc
 1048              		@ args = 0, pretend = 0, frame = 0
 1049              		@ frame_needed = 0, uses_anonymous_args = 0
 1050              		@ link register save eliminated.
 421:Core/Src/adf4351.c **** 	if(Hz != INT32_MAX)
 1051              		.loc 1 421 2 view .LVU284
 1052              		.loc 1 421 4 is_stmt 0 view .LVU285
 1053 0000 00F10043 		add	r3, r0, #-2147483648
 1054 0004 0133     		adds	r3, r3, #1
 1055 0006 0B43     		orrs	r3, r3, r1
 1056 0008 01D0     		beq	.L74
 422:Core/Src/adf4351.c **** 	{
 423:Core/Src/adf4351.c **** 		adf4350_st.clkin = Hz;
 1057              		.loc 1 423 3 is_stmt 1 view .LVU286
 1058              		.loc 1 423 20 is_stmt 0 view .LVU287
 1059 000a 034B     		ldr	r3, .L75
 1060 000c 5860     		str	r0, [r3, #4]
 1061              	.L74:
 424:Core/Src/adf4351.c **** 	}
 425:Core/Src/adf4351.c **** 
 426:Core/Src/adf4351.c **** 	return adf4350_st.clkin;
ARM GAS  C:\Users\ardav\AppData\Local\Temp\cc37iM3u.s 			page 28


 1062              		.loc 1 426 2 is_stmt 1 view .LVU288
 427:Core/Src/adf4351.c **** }
 1063              		.loc 1 427 1 is_stmt 0 view .LVU289
 1064 000e 024B     		ldr	r3, .L75
 1065 0010 5868     		ldr	r0, [r3, #4]
 1066              	.LVL84:
 1067              		.loc 1 427 1 view .LVU290
 1068 0012 0021     		movs	r1, #0
 1069 0014 7047     		bx	lr
 1070              	.L76:
 1071 0016 00BF     		.align	2
 1072              	.L75:
 1073 0018 00000000 		.word	.LANCHOR0
 1074              		.cfi_endproc
 1075              	.LFE76:
 1077              		.section	.text.adf4350_setup,"ax",%progbits
 1078              		.align	1
 1079              		.global	adf4350_setup
 1080              		.syntax unified
 1081              		.thumb
 1082              		.thumb_func
 1084              	adf4350_setup:
 1085              	.LFB73:
 314:Core/Src/adf4351.c **** 	struct adf4350_state *st = &adf4350_st;
 1086              		.loc 1 314 1 is_stmt 1 view -0
 1087              		.cfi_startproc
 1088              		@ args = 60, pretend = 16, frame = 0
 1089              		@ frame_needed = 0, uses_anonymous_args = 0
 1090 0000 84B0     		sub	sp, sp, #16
 1091              	.LCFI16:
 1092              		.cfi_def_cfa_offset 16
 1093 0002 38B5     		push	{r3, r4, r5, lr}
 1094              	.LCFI17:
 1095              		.cfi_def_cfa_offset 32
 1096              		.cfi_offset 3, -32
 1097              		.cfi_offset 4, -28
 1098              		.cfi_offset 5, -24
 1099              		.cfi_offset 14, -20
 1100 0004 04AC     		add	r4, sp, #16
 1101 0006 84E80F00 		stm	r4, {r0, r1, r2, r3}
 315:Core/Src/adf4351.c **** 
 1102              		.loc 1 315 2 view .LVU292
 1103              	.LVL85:
 318:Core/Src/adf4351.c **** 
 1104              		.loc 1 318 2 view .LVU293
 318:Core/Src/adf4351.c **** 
 1105              		.loc 1 318 12 is_stmt 0 view .LVU294
 1106 000a 5E4B     		ldr	r3, .L101
 1107 000c 5E4A     		ldr	r2, .L101+4
 1108 000e 1360     		str	r3, [r2]
 320:Core/Src/adf4351.c **** 		return -1;
 1109              		.loc 1 320 2 is_stmt 1 view .LVU295
 323:Core/Src/adf4351.c **** 
 1110              		.loc 1 323 2 view .LVU296
 323:Core/Src/adf4351.c **** 
 1111              		.loc 1 323 19 is_stmt 0 view .LVU297
 1112 0010 1860     		str	r0, [r3]
ARM GAS  C:\Users\ardav\AppData\Local\Temp\cc37iM3u.s 			page 29


 325:Core/Src/adf4351.c **** 
 1113              		.loc 1 325 2 is_stmt 1 view .LVU298
 325:Core/Src/adf4351.c **** 
 1114              		.loc 1 325 29 is_stmt 0 view .LVU299
 1115 0012 5960     		str	r1, [r3, #4]
 327:Core/Src/adf4351.c **** 	st->pdata->ref_div_factor = init_param.reference_div_factor;
 1116              		.loc 1 327 2 is_stmt 1 view .LVU300
 327:Core/Src/adf4351.c **** 	st->pdata->ref_div_factor = init_param.reference_div_factor;
 1117              		.loc 1 327 32 is_stmt 0 view .LVU301
 1118 0014 069A     		ldr	r2, [sp, #24]
 1119 0016 9A60     		str	r2, [r3, #8]
 1120 0018 0022     		movs	r2, #0
 1121 001a DA60     		str	r2, [r3, #12]
 328:Core/Src/adf4351.c **** 	st->pdata->ref_doubler_en = init_param.reference_doubler_enable;
 1122              		.loc 1 328 2 is_stmt 1 view .LVU302
 328:Core/Src/adf4351.c **** 	st->pdata->ref_doubler_en = init_param.reference_doubler_enable;
 1123              		.loc 1 328 40 is_stmt 0 view .LVU303
 1124 001c 079A     		ldr	r2, [sp, #28]
 328:Core/Src/adf4351.c **** 	st->pdata->ref_doubler_en = init_param.reference_doubler_enable;
 1125              		.loc 1 328 28 view .LVU304
 1126 001e 1A82     		strh	r2, [r3, #16]	@ movhi
 329:Core/Src/adf4351.c **** 	st->pdata->ref_div2_en = init_param.reference_div2_enable;
 1127              		.loc 1 329 2 is_stmt 1 view .LVU305
 329:Core/Src/adf4351.c **** 	st->pdata->ref_div2_en = init_param.reference_div2_enable;
 1128              		.loc 1 329 40 is_stmt 0 view .LVU306
 1129 0020 9DF82020 		ldrb	r2, [sp, #32]	@ zero_extendqisi2
 329:Core/Src/adf4351.c **** 	st->pdata->ref_div2_en = init_param.reference_div2_enable;
 1130              		.loc 1 329 28 view .LVU307
 1131 0024 9A74     		strb	r2, [r3, #18]
 330:Core/Src/adf4351.c **** 
 1132              		.loc 1 330 2 is_stmt 1 view .LVU308
 330:Core/Src/adf4351.c **** 
 1133              		.loc 1 330 37 is_stmt 0 view .LVU309
 1134 0026 9DF82120 		ldrb	r2, [sp, #33]	@ zero_extendqisi2
 330:Core/Src/adf4351.c **** 
 1135              		.loc 1 330 25 view .LVU310
 1136 002a DA74     		strb	r2, [r3, #19]
 334:Core/Src/adf4351.c **** 			ADF4350_REG2_PD_POLARITY_POS : 0;
 1137              		.loc 1 334 2 is_stmt 1 view .LVU311
 334:Core/Src/adf4351.c **** 			ADF4350_REG2_PD_POLARITY_POS : 0;
 1138              		.loc 1 334 42 is_stmt 0 view .LVU312
 1139 002c 9DF82230 		ldrb	r3, [sp, #34]	@ zero_extendqisi2
 335:Core/Src/adf4351.c **** 	st->pdata->r2_user_settings |= init_param.lock_detect_precision_6ns_enable ?
 1140              		.loc 1 335 33 view .LVU313
 1141 0030 002B     		cmp	r3, #0
 1142 0032 00F09080 		beq	.L89
 1143 0036 4023     		movs	r3, #64
 1144              	.L78:
 334:Core/Src/adf4351.c **** 			ADF4350_REG2_PD_POLARITY_POS : 0;
 1145              		.loc 1 334 30 view .LVU314
 1146 0038 524A     		ldr	r2, .L101
 1147 003a 5361     		str	r3, [r2, #20]
 336:Core/Src/adf4351.c **** 			ADF4350_REG2_LDP_6ns : 0;
 1148              		.loc 1 336 2 is_stmt 1 view .LVU315
 336:Core/Src/adf4351.c **** 			ADF4350_REG2_LDP_6ns : 0;
 1149              		.loc 1 336 43 is_stmt 0 view .LVU316
 1150 003c 9DF82320 		ldrb	r2, [sp, #35]	@ zero_extendqisi2
ARM GAS  C:\Users\ardav\AppData\Local\Temp\cc37iM3u.s 			page 30


 337:Core/Src/adf4351.c **** 	st->pdata->r2_user_settings |= init_param.lock_detect_function_integer_n_enable ?
 1151              		.loc 1 337 25 view .LVU317
 1152 0040 002A     		cmp	r2, #0
 1153 0042 00F08A80 		beq	.L90
 1154 0046 8022     		movs	r2, #128
 1155              	.L79:
 336:Core/Src/adf4351.c **** 			ADF4350_REG2_LDP_6ns : 0;
 1156              		.loc 1 336 30 view .LVU318
 1157 0048 1343     		orrs	r3, r3, r2
 1158 004a 4E4A     		ldr	r2, .L101
 1159 004c 5361     		str	r3, [r2, #20]
 338:Core/Src/adf4351.c **** 			ADF4350_REG2_LDF_INT_N : 0;
 1160              		.loc 1 338 2 is_stmt 1 view .LVU319
 338:Core/Src/adf4351.c **** 			ADF4350_REG2_LDF_INT_N : 0;
 1161              		.loc 1 338 43 is_stmt 0 view .LVU320
 1162 004e 9DF82420 		ldrb	r2, [sp, #36]	@ zero_extendqisi2
 339:Core/Src/adf4351.c **** 	st->pdata->r2_user_settings |= ADF4350_REG2_CHARGE_PUMP_CURR_uA(init_param.charge_pump_current);
 1163              		.loc 1 339 27 view .LVU321
 1164 0052 002A     		cmp	r2, #0
 1165 0054 00F08380 		beq	.L91
 1166 0058 4FF48072 		mov	r2, #256
 1167              	.L80:
 338:Core/Src/adf4351.c **** 			ADF4350_REG2_LDF_INT_N : 0;
 1168              		.loc 1 338 30 view .LVU322
 1169 005c 1343     		orrs	r3, r3, r2
 1170 005e 4949     		ldr	r1, .L101
 1171 0060 4B61     		str	r3, [r1, #20]
 340:Core/Src/adf4351.c **** 	st->pdata->r2_user_settings |= ADF4350_REG2_MUXOUT(init_param.muxout_select);
 1172              		.loc 1 340 2 is_stmt 1 view .LVU323
 340:Core/Src/adf4351.c **** 	st->pdata->r2_user_settings |= ADF4350_REG2_MUXOUT(init_param.muxout_select);
 1173              		.loc 1 340 33 is_stmt 0 view .LVU324
 1174 0062 0A9A     		ldr	r2, [sp, #40]
 1175 0064 A2F59C72 		sub	r2, r2, #312
 1176 0068 D208     		lsrs	r2, r2, #3
 1177 006a 484C     		ldr	r4, .L101+8
 1178 006c A4FB0242 		umull	r4, r2, r4, r2
 1179 0070 9208     		lsrs	r2, r2, #2
 1180 0072 5202     		lsls	r2, r2, #9
 1181 0074 02F4F052 		and	r2, r2, #7680
 340:Core/Src/adf4351.c **** 	st->pdata->r2_user_settings |= ADF4350_REG2_MUXOUT(init_param.muxout_select);
 1182              		.loc 1 340 30 view .LVU325
 1183 0078 1343     		orrs	r3, r3, r2
 1184 007a 4B61     		str	r3, [r1, #20]
 341:Core/Src/adf4351.c **** 	st->pdata->r2_user_settings |= init_param.low_spur_mode_enable ? ADF4350_REG2_NOISE_MODE(0x3) : 0;
 1185              		.loc 1 341 2 is_stmt 1 view .LVU326
 341:Core/Src/adf4351.c **** 	st->pdata->r2_user_settings |= init_param.low_spur_mode_enable ? ADF4350_REG2_NOISE_MODE(0x3) : 0;
 1186              		.loc 1 341 30 is_stmt 0 view .LVU327
 1187 007c 0B9A     		ldr	r2, [sp, #44]
 1188 007e 43EA8263 		orr	r3, r3, r2, lsl #26
 1189 0082 4B61     		str	r3, [r1, #20]
 342:Core/Src/adf4351.c **** 
 1190              		.loc 1 342 2 is_stmt 1 view .LVU328
 342:Core/Src/adf4351.c **** 
 1191              		.loc 1 342 43 is_stmt 0 view .LVU329
 1192 0084 9DF83020 		ldrb	r2, [sp, #48]	@ zero_extendqisi2
 342:Core/Src/adf4351.c **** 
 1193              		.loc 1 342 96 view .LVU330
ARM GAS  C:\Users\ardav\AppData\Local\Temp\cc37iM3u.s 			page 31


 1194 0088 002A     		cmp	r2, #0
 1195 008a 6AD0     		beq	.L92
 1196 008c 4FF0C042 		mov	r2, #1610612736
 1197              	.L81:
 342:Core/Src/adf4351.c **** 
 1198              		.loc 1 342 30 discriminator 4 view .LVU331
 1199 0090 1343     		orrs	r3, r3, r2
 1200 0092 3C4A     		ldr	r2, .L101
 1201 0094 5361     		str	r3, [r2, #20]
 346:Core/Src/adf4351.c **** 			ADF4350_REG3_12BIT_CSR_EN : 0;
 1202              		.loc 1 346 2 is_stmt 1 discriminator 4 view .LVU332
 346:Core/Src/adf4351.c **** 			ADF4350_REG3_12BIT_CSR_EN : 0;
 1203              		.loc 1 346 42 is_stmt 0 discriminator 4 view .LVU333
 1204 0096 9DF83130 		ldrb	r3, [sp, #49]	@ zero_extendqisi2
 347:Core/Src/adf4351.c **** 	st->pdata->r3_user_settings |= init_param.charge_cancellation_enable ?
 1205              		.loc 1 347 30 discriminator 4 view .LVU334
 1206 009a 002B     		cmp	r3, #0
 1207 009c 63D0     		beq	.L93
 347:Core/Src/adf4351.c **** 	st->pdata->r3_user_settings |= init_param.charge_cancellation_enable ?
 1208              		.loc 1 347 30 view .LVU335
 1209 009e 4FF48023 		mov	r3, #262144
 1210              	.L82:
 346:Core/Src/adf4351.c **** 			ADF4350_REG3_12BIT_CSR_EN : 0;
 1211              		.loc 1 346 30 view .LVU336
 1212 00a2 384A     		ldr	r2, .L101
 1213 00a4 9361     		str	r3, [r2, #24]
 348:Core/Src/adf4351.c **** 			ADF4351_REG3_CHARGE_CANCELLATION_EN : 0;
 1214              		.loc 1 348 2 is_stmt 1 view .LVU337
 348:Core/Src/adf4351.c **** 			ADF4351_REG3_CHARGE_CANCELLATION_EN : 0;
 1215              		.loc 1 348 43 is_stmt 0 view .LVU338
 1216 00a6 9DF83220 		ldrb	r2, [sp, #50]	@ zero_extendqisi2
 349:Core/Src/adf4351.c **** 	st->pdata->r3_user_settings |= init_param.anti_backlash_3ns_enable ?
 1217              		.loc 1 349 40 view .LVU339
 1218 00aa 002A     		cmp	r2, #0
 1219 00ac 5DD0     		beq	.L94
 1220 00ae 4FF40012 		mov	r2, #2097152
 1221              	.L83:
 348:Core/Src/adf4351.c **** 			ADF4351_REG3_CHARGE_CANCELLATION_EN : 0;
 1222              		.loc 1 348 30 view .LVU340
 1223 00b2 1343     		orrs	r3, r3, r2
 1224 00b4 334A     		ldr	r2, .L101
 1225 00b6 9361     		str	r3, [r2, #24]
 350:Core/Src/adf4351.c **** 			ADF4351_REG3_ANTI_BACKLASH_3ns_EN : 0;
 1226              		.loc 1 350 2 is_stmt 1 view .LVU341
 350:Core/Src/adf4351.c **** 			ADF4351_REG3_ANTI_BACKLASH_3ns_EN : 0;
 1227              		.loc 1 350 43 is_stmt 0 view .LVU342
 1228 00b8 9DF83320 		ldrb	r2, [sp, #51]	@ zero_extendqisi2
 351:Core/Src/adf4351.c **** 	st->pdata->r3_user_settings |= init_param.band_select_clock_mode_high_enable ?
 1229              		.loc 1 351 38 view .LVU343
 1230 00bc 002A     		cmp	r2, #0
 1231 00be 56D0     		beq	.L95
 1232 00c0 4FF48002 		mov	r2, #4194304
 1233              	.L84:
 350:Core/Src/adf4351.c **** 			ADF4351_REG3_ANTI_BACKLASH_3ns_EN : 0;
 1234              		.loc 1 350 30 view .LVU344
 1235 00c4 1343     		orrs	r3, r3, r2
 1236 00c6 2F4A     		ldr	r2, .L101
ARM GAS  C:\Users\ardav\AppData\Local\Temp\cc37iM3u.s 			page 32


 1237 00c8 9361     		str	r3, [r2, #24]
 352:Core/Src/adf4351.c **** 			ADF4351_REG3_BAND_SEL_CLOCK_MODE_HIGH : 0;
 1238              		.loc 1 352 2 is_stmt 1 view .LVU345
 352:Core/Src/adf4351.c **** 			ADF4351_REG3_BAND_SEL_CLOCK_MODE_HIGH : 0;
 1239              		.loc 1 352 43 is_stmt 0 view .LVU346
 1240 00ca 9DF83420 		ldrb	r2, [sp, #52]	@ zero_extendqisi2
 353:Core/Src/adf4351.c **** 	st->pdata->r3_user_settings |= ADF4350_REG3_12BIT_CLKDIV(init_param.clk_divider_12bit);
 1241              		.loc 1 353 42 view .LVU347
 1242 00ce 002A     		cmp	r2, #0
 1243 00d0 4FD0     		beq	.L96
 1244 00d2 4FF40002 		mov	r2, #8388608
 1245              	.L85:
 352:Core/Src/adf4351.c **** 			ADF4351_REG3_BAND_SEL_CLOCK_MODE_HIGH : 0;
 1246              		.loc 1 352 30 view .LVU348
 1247 00d6 1343     		orrs	r3, r3, r2
 1248 00d8 2A4A     		ldr	r2, .L101
 1249 00da 9361     		str	r3, [r2, #24]
 354:Core/Src/adf4351.c **** 	st->pdata->r3_user_settings |= ADF4350_REG3_12BIT_CLKDIV_MODE(init_param.clk_divider_mode);
 1250              		.loc 1 354 2 is_stmt 1 view .LVU349
 354:Core/Src/adf4351.c **** 	st->pdata->r3_user_settings |= ADF4350_REG3_12BIT_CLKDIV_MODE(init_param.clk_divider_mode);
 1251              		.loc 1 354 30 is_stmt 0 view .LVU350
 1252 00dc 0E99     		ldr	r1, [sp, #56]
 1253 00de 43EAC103 		orr	r3, r3, r1, lsl #3
 1254 00e2 9361     		str	r3, [r2, #24]
 355:Core/Src/adf4351.c **** 
 1255              		.loc 1 355 2 is_stmt 1 view .LVU351
 355:Core/Src/adf4351.c **** 
 1256              		.loc 1 355 30 is_stmt 0 view .LVU352
 1257 00e4 0F99     		ldr	r1, [sp, #60]
 1258 00e6 43EA0143 		orr	r3, r3, r1, lsl #16
 1259 00ea 9361     		str	r3, [r2, #24]
 359:Core/Src/adf4351.c **** 			ADF4350_REG4_AUX_OUTPUT_EN : 0;
 1260              		.loc 1 359 2 is_stmt 1 view .LVU353
 359:Core/Src/adf4351.c **** 			ADF4350_REG4_AUX_OUTPUT_EN : 0;
 1261              		.loc 1 359 42 is_stmt 0 view .LVU354
 1262 00ec 9DF84030 		ldrb	r3, [sp, #64]	@ zero_extendqisi2
 360:Core/Src/adf4351.c **** 	st->pdata->r4_user_settings |= init_param.aux_output_fundamental_enable ?
 1263              		.loc 1 360 31 view .LVU355
 1264 00f0 002B     		cmp	r3, #0
 1265 00f2 40D0     		beq	.L97
 1266 00f4 4FF48073 		mov	r3, #256
 1267              	.L86:
 359:Core/Src/adf4351.c **** 			ADF4350_REG4_AUX_OUTPUT_EN : 0;
 1268              		.loc 1 359 30 view .LVU356
 1269 00f8 224A     		ldr	r2, .L101
 1270 00fa D361     		str	r3, [r2, #28]
 361:Core/Src/adf4351.c **** 			ADF4350_REG4_AUX_OUTPUT_FUND : 0;
 1271              		.loc 1 361 2 is_stmt 1 view .LVU357
 361:Core/Src/adf4351.c **** 			ADF4350_REG4_AUX_OUTPUT_FUND : 0;
 1272              		.loc 1 361 43 is_stmt 0 view .LVU358
 1273 00fc 9DF84120 		ldrb	r2, [sp, #65]	@ zero_extendqisi2
 362:Core/Src/adf4351.c **** 	st->pdata->r4_user_settings |= init_param.mute_till_lock_enable ?
 1274              		.loc 1 362 33 view .LVU359
 1275 0100 002A     		cmp	r2, #0
 1276 0102 3AD0     		beq	.L98
 1277 0104 4FF40072 		mov	r2, #512
 1278              	.L87:
ARM GAS  C:\Users\ardav\AppData\Local\Temp\cc37iM3u.s 			page 33


 361:Core/Src/adf4351.c **** 			ADF4350_REG4_AUX_OUTPUT_FUND : 0;
 1279              		.loc 1 361 30 view .LVU360
 1280 0108 1343     		orrs	r3, r3, r2
 1281 010a 1E4A     		ldr	r2, .L101
 1282 010c D361     		str	r3, [r2, #28]
 363:Core/Src/adf4351.c **** 			ADF4350_REG4_MUTE_TILL_LOCK_EN : 0;
 1283              		.loc 1 363 2 is_stmt 1 view .LVU361
 363:Core/Src/adf4351.c **** 			ADF4350_REG4_MUTE_TILL_LOCK_EN : 0;
 1284              		.loc 1 363 43 is_stmt 0 view .LVU362
 1285 010e 9DF84220 		ldrb	r2, [sp, #66]	@ zero_extendqisi2
 364:Core/Src/adf4351.c **** 	st->pdata->r4_user_settings |= ADF4350_REG4_OUTPUT_PWR(init_param.output_power);
 1286              		.loc 1 364 35 view .LVU363
 1287 0112 002A     		cmp	r2, #0
 1288 0114 33D0     		beq	.L99
 1289 0116 4FF48062 		mov	r2, #1024
 1290              	.L88:
 363:Core/Src/adf4351.c **** 			ADF4350_REG4_MUTE_TILL_LOCK_EN : 0;
 1291              		.loc 1 363 30 view .LVU364
 1292 011a 1343     		orrs	r3, r3, r2
 1293 011c 194A     		ldr	r2, .L101
 1294 011e D361     		str	r3, [r2, #28]
 365:Core/Src/adf4351.c **** 	st->pdata->r4_user_settings |= ADF4350_REG4_AUX_OUTPUT_PWR(init_param.aux_output_power);
 1295              		.loc 1 365 2 is_stmt 1 view .LVU365
 365:Core/Src/adf4351.c **** 	st->pdata->r4_user_settings |= ADF4350_REG4_AUX_OUTPUT_PWR(init_param.aux_output_power);
 1296              		.loc 1 365 30 is_stmt 0 view .LVU366
 1297 0120 1199     		ldr	r1, [sp, #68]
 1298 0122 43EAC103 		orr	r3, r3, r1, lsl #3
 1299 0126 D361     		str	r3, [r2, #28]
 366:Core/Src/adf4351.c **** 
 1300              		.loc 1 366 2 is_stmt 1 view .LVU367
 366:Core/Src/adf4351.c **** 
 1301              		.loc 1 366 30 is_stmt 0 view .LVU368
 1302 0128 1299     		ldr	r1, [sp, #72]
 1303 012a 43EA8113 		orr	r3, r3, r1, lsl #6
 1304 012e D361     		str	r3, [r2, #28]
 368:Core/Src/adf4351.c **** 	adf4350_out_altvoltage0_frequency_resolution(st->pdata->channel_spacing);
 1305              		.loc 1 368 2 is_stmt 1 view .LVU369
 1306 0130 0024     		movs	r4, #0
 1307 0132 2146     		mov	r1, r4
 1308 0134 FFF7FEFF 		bl	adf4350_out_altvoltage0_refin_frequency
 1309              	.LVL86:
 369:Core/Src/adf4351.c **** 	adf4350_out_altvoltage0_frequency(st->pdata->power_up_frequency);
 1310              		.loc 1 369 2 view .LVU370
 369:Core/Src/adf4351.c **** 	adf4350_out_altvoltage0_frequency(st->pdata->power_up_frequency);
 1311              		.loc 1 369 49 is_stmt 0 view .LVU371
 1312 0138 134D     		ldr	r5, .L101+4
 1313 013a 2B68     		ldr	r3, [r5]
 369:Core/Src/adf4351.c **** 	adf4350_out_altvoltage0_frequency(st->pdata->power_up_frequency);
 1314              		.loc 1 369 2 view .LVU372
 1315 013c 5868     		ldr	r0, [r3, #4]
 1316 013e FFF7FEFF 		bl	adf4350_out_altvoltage0_frequency_resolution
 1317              	.LVL87:
 370:Core/Src/adf4351.c **** 
 1318              		.loc 1 370 2 is_stmt 1 view .LVU373
 370:Core/Src/adf4351.c **** 
 1319              		.loc 1 370 38 is_stmt 0 view .LVU374
 1320 0142 2B68     		ldr	r3, [r5]
ARM GAS  C:\Users\ardav\AppData\Local\Temp\cc37iM3u.s 			page 34


 370:Core/Src/adf4351.c **** 
 1321              		.loc 1 370 2 view .LVU375
 1322 0144 D3E90201 		ldrd	r0, [r3, #8]
 1323 0148 FFF7FEFF 		bl	adf4350_out_altvoltage0_frequency
 1324              	.LVL88:
 380:Core/Src/adf4351.c **** }
 1325              		.loc 1 380 5 is_stmt 1 view .LVU376
 381:Core/Src/adf4351.c **** 
 1326              		.loc 1 381 1 is_stmt 0 view .LVU377
 1327 014c 2046     		mov	r0, r4
 1328 014e BDE83840 		pop	{r3, r4, r5, lr}
 1329              	.LCFI18:
 1330              		.cfi_remember_state
 1331              		.cfi_restore 14
 1332              		.cfi_restore 5
 1333              		.cfi_restore 4
 1334              		.cfi_restore 3
 1335              		.cfi_def_cfa_offset 16
 1336 0152 04B0     		add	sp, sp, #16
 1337              	.LCFI19:
 1338              		.cfi_def_cfa_offset 0
 1339 0154 7047     		bx	lr
 1340              	.L89:
 1341              	.LCFI20:
 1342              		.cfi_restore_state
 335:Core/Src/adf4351.c **** 	st->pdata->r2_user_settings |= init_param.lock_detect_precision_6ns_enable ?
 1343              		.loc 1 335 33 view .LVU378
 1344 0156 0023     		movs	r3, #0
 1345 0158 6EE7     		b	.L78
 1346              	.L90:
 337:Core/Src/adf4351.c **** 	st->pdata->r2_user_settings |= init_param.lock_detect_function_integer_n_enable ?
 1347              		.loc 1 337 25 view .LVU379
 1348 015a 0022     		movs	r2, #0
 1349 015c 74E7     		b	.L79
 1350              	.L91:
 339:Core/Src/adf4351.c **** 	st->pdata->r2_user_settings |= ADF4350_REG2_CHARGE_PUMP_CURR_uA(init_param.charge_pump_current);
 1351              		.loc 1 339 27 view .LVU380
 1352 015e 0022     		movs	r2, #0
 1353 0160 7CE7     		b	.L80
 1354              	.L92:
 342:Core/Src/adf4351.c **** 
 1355              		.loc 1 342 96 view .LVU381
 1356 0162 0022     		movs	r2, #0
 1357 0164 94E7     		b	.L81
 1358              	.L93:
 347:Core/Src/adf4351.c **** 	st->pdata->r3_user_settings |= init_param.charge_cancellation_enable ?
 1359              		.loc 1 347 30 view .LVU382
 1360 0166 0023     		movs	r3, #0
 1361 0168 9BE7     		b	.L82
 1362              	.L94:
 349:Core/Src/adf4351.c **** 	st->pdata->r3_user_settings |= init_param.anti_backlash_3ns_enable ?
 1363              		.loc 1 349 40 view .LVU383
 1364 016a 0022     		movs	r2, #0
 1365 016c A1E7     		b	.L83
 1366              	.L95:
 351:Core/Src/adf4351.c **** 	st->pdata->r3_user_settings |= init_param.band_select_clock_mode_high_enable ?
 1367              		.loc 1 351 38 view .LVU384
ARM GAS  C:\Users\ardav\AppData\Local\Temp\cc37iM3u.s 			page 35


 1368 016e 0022     		movs	r2, #0
 1369 0170 A8E7     		b	.L84
 1370              	.L96:
 353:Core/Src/adf4351.c **** 	st->pdata->r3_user_settings |= ADF4350_REG3_12BIT_CLKDIV(init_param.clk_divider_12bit);
 1371              		.loc 1 353 42 view .LVU385
 1372 0172 0022     		movs	r2, #0
 1373 0174 AFE7     		b	.L85
 1374              	.L97:
 360:Core/Src/adf4351.c **** 	st->pdata->r4_user_settings |= init_param.aux_output_fundamental_enable ?
 1375              		.loc 1 360 31 view .LVU386
 1376 0176 0023     		movs	r3, #0
 1377 0178 BEE7     		b	.L86
 1378              	.L98:
 362:Core/Src/adf4351.c **** 	st->pdata->r4_user_settings |= init_param.mute_till_lock_enable ?
 1379              		.loc 1 362 33 view .LVU387
 1380 017a 0022     		movs	r2, #0
 1381 017c C4E7     		b	.L87
 1382              	.L99:
 364:Core/Src/adf4351.c **** 	st->pdata->r4_user_settings |= ADF4350_REG4_OUTPUT_PWR(init_param.output_power);
 1383              		.loc 1 364 35 view .LVU388
 1384 017e 0022     		movs	r2, #0
 1385 0180 CBE7     		b	.L88
 1386              	.L102:
 1387 0182 00BF     		.align	2
 1388              	.L101:
 1389 0184 00000000 		.word	.LANCHOR1
 1390 0188 00000000 		.word	.LANCHOR0
 1391 018c 1BA4411A 		.word	440509467
 1392              		.cfi_endproc
 1393              	.LFE73:
 1395              		.section	.text.adf4350_out_altvoltage0_powerdown,"ax",%progbits
 1396              		.align	1
 1397              		.global	adf4350_out_altvoltage0_powerdown
 1398              		.syntax unified
 1399              		.thumb
 1400              		.thumb_func
 1402              	adf4350_out_altvoltage0_powerdown:
 1403              	.LVL89:
 1404              	.LFB77:
 428:Core/Src/adf4351.c **** 
 429:Core/Src/adf4351.c **** /***************************************************************************//**
 430:Core/Src/adf4351.c ****  * @brief Powers down the PLL.
 431:Core/Src/adf4351.c ****  *
 432:Core/Src/adf4351.c ****  * @param pwd - Power option.
 433:Core/Src/adf4351.c ****  *				Example: 0 - Power up the PLL.
 434:Core/Src/adf4351.c ****  *						 1 - Power down the PLL.
 435:Core/Src/adf4351.c ****  *
 436:Core/Src/adf4351.c ****  * @return Returns the PLL's power status.
 437:Core/Src/adf4351.c **** *******************************************************************************/
 438:Core/Src/adf4351.c **** int32_t adf4350_out_altvoltage0_powerdown(int32_t pwd)
 439:Core/Src/adf4351.c **** {
 1405              		.loc 1 439 1 is_stmt 1 view -0
 1406              		.cfi_startproc
 1407              		@ args = 0, pretend = 0, frame = 0
 1408              		@ frame_needed = 0, uses_anonymous_args = 0
 1409              		.loc 1 439 1 is_stmt 0 view .LVU390
 1410 0000 10B5     		push	{r4, lr}
ARM GAS  C:\Users\ardav\AppData\Local\Temp\cc37iM3u.s 			page 36


 1411              	.LCFI21:
 1412              		.cfi_def_cfa_offset 8
 1413              		.cfi_offset 4, -8
 1414              		.cfi_offset 14, -4
 1415 0002 0446     		mov	r4, r0
 440:Core/Src/adf4351.c **** 	struct adf4350_state *st = &adf4350_st;
 1416              		.loc 1 440 2 is_stmt 1 view .LVU391
 1417              	.LVL90:
 441:Core/Src/adf4351.c **** 
 442:Core/Src/adf4351.c **** 	if(pwd == 1)
 1418              		.loc 1 442 2 view .LVU392
 1419              		.loc 1 442 4 is_stmt 0 view .LVU393
 1420 0004 0128     		cmp	r0, #1
 1421 0006 05D0     		beq	.L107
 1422              	.LVL91:
 1423              	.L104:
 443:Core/Src/adf4351.c **** 	{
 444:Core/Src/adf4351.c **** 		st->regs[ADF4350_REG2] |= ADF4350_REG2_POWER_DOWN_EN;
 445:Core/Src/adf4351.c **** 		adf4350_sync_config(st);
 446:Core/Src/adf4351.c **** 	}
 447:Core/Src/adf4351.c **** 	if(pwd == 0)
 1424              		.loc 1 447 2 is_stmt 1 view .LVU394
 1425              		.loc 1 447 4 is_stmt 0 view .LVU395
 1426 0008 64B1     		cbz	r4, .L108
 1427              	.L105:
 448:Core/Src/adf4351.c **** 	{
 449:Core/Src/adf4351.c **** 		st->regs[ADF4350_REG2] &= ~ADF4350_REG2_POWER_DOWN_EN;
 450:Core/Src/adf4351.c **** 		adf4350_sync_config(st);
 451:Core/Src/adf4351.c **** 	}
 452:Core/Src/adf4351.c **** 
 453:Core/Src/adf4351.c **** 
 454:Core/Src/adf4351.c **** 	return (st->regs[ADF4350_REG2] & ADF4350_REG2_POWER_DOWN_EN);
 1428              		.loc 1 454 2 is_stmt 1 view .LVU396
 1429              		.loc 1 454 18 is_stmt 0 view .LVU397
 1430 000a 0A4B     		ldr	r3, .L109
 1431 000c D86A     		ldr	r0, [r3, #44]
 455:Core/Src/adf4351.c **** }
 1432              		.loc 1 455 1 view .LVU398
 1433 000e 00F02000 		and	r0, r0, #32
 1434 0012 10BD     		pop	{r4, pc}
 1435              	.LVL92:
 1436              	.L107:
 444:Core/Src/adf4351.c **** 		adf4350_sync_config(st);
 1437              		.loc 1 444 3 is_stmt 1 view .LVU399
 444:Core/Src/adf4351.c **** 		adf4350_sync_config(st);
 1438              		.loc 1 444 26 is_stmt 0 view .LVU400
 1439 0014 0748     		ldr	r0, .L109
 1440              	.LVL93:
 444:Core/Src/adf4351.c **** 		adf4350_sync_config(st);
 1441              		.loc 1 444 26 view .LVU401
 1442 0016 C36A     		ldr	r3, [r0, #44]
 1443 0018 43F02003 		orr	r3, r3, #32
 1444 001c C362     		str	r3, [r0, #44]
 445:Core/Src/adf4351.c **** 	}
 1445              		.loc 1 445 3 is_stmt 1 view .LVU402
 1446 001e FFF7FEFF 		bl	adf4350_sync_config
 1447              	.LVL94:
ARM GAS  C:\Users\ardav\AppData\Local\Temp\cc37iM3u.s 			page 37


 1448 0022 F1E7     		b	.L104
 1449              	.L108:
 449:Core/Src/adf4351.c **** 		adf4350_sync_config(st);
 1450              		.loc 1 449 3 view .LVU403
 449:Core/Src/adf4351.c **** 		adf4350_sync_config(st);
 1451              		.loc 1 449 26 is_stmt 0 view .LVU404
 1452 0024 0348     		ldr	r0, .L109
 1453 0026 C36A     		ldr	r3, [r0, #44]
 1454 0028 23F02003 		bic	r3, r3, #32
 1455 002c C362     		str	r3, [r0, #44]
 450:Core/Src/adf4351.c **** 	}
 1456              		.loc 1 450 3 is_stmt 1 view .LVU405
 1457 002e FFF7FEFF 		bl	adf4350_sync_config
 1458              	.LVL95:
 1459 0032 EAE7     		b	.L105
 1460              	.L110:
 1461              		.align	2
 1462              	.L109:
 1463 0034 00000000 		.word	.LANCHOR0
 1464              		.cfi_endproc
 1465              	.LFE77:
 1467              		.global	platdata
 1468              		.section	.bss.adf4350_st,"aw",%nobits
 1469              		.align	2
 1470              		.set	.LANCHOR0,. + 0
 1473              	adf4350_st:
 1474 0000 00000000 		.space	88
 1474      00000000 
 1474      00000000 
 1474      00000000 
 1474      00000000 
 1475              		.section	.bss.platdata,"aw",%nobits
 1476              		.align	3
 1477              		.set	.LANCHOR1,. + 0
 1480              	platdata:
 1481 0000 00000000 		.space	40
 1481      00000000 
 1481      00000000 
 1481      00000000 
 1481      00000000 
 1482              		.text
 1483              	.Letext0:
 1484              		.file 2 "d:\\programs\\tools\\arm gnu toolchain arm-none-eabi\\11.3 rel1\\arm-none-eabi\\include\\
 1485              		.file 3 "d:\\programs\\tools\\arm gnu toolchain arm-none-eabi\\11.3 rel1\\arm-none-eabi\\include\\
 1486              		.file 4 "Drivers/CMSIS/Device/ST/STM32F1xx/Include/stm32f103xb.h"
 1487              		.file 5 "Drivers/STM32F1xx_HAL_Driver/Inc/stm32f1xx_hal_def.h"
 1488              		.file 6 "Drivers/STM32F1xx_HAL_Driver/Inc/stm32f1xx_hal_gpio.h"
 1489              		.file 7 "Drivers/STM32F1xx_HAL_Driver/Inc/stm32f1xx_hal_dma.h"
 1490              		.file 8 "Drivers/STM32F1xx_HAL_Driver/Inc/stm32f1xx_hal_spi.h"
 1491              		.file 9 "Core/Inc/adf4351.h"
ARM GAS  C:\Users\ardav\AppData\Local\Temp\cc37iM3u.s 			page 38


DEFINED SYMBOLS
                            *ABS*:00000000 adf4351.c
C:\Users\ardav\AppData\Local\Temp\cc37iM3u.s:18     .text.SPI_assert_CS_LD:00000000 $t
C:\Users\ardav\AppData\Local\Temp\cc37iM3u.s:24     .text.SPI_assert_CS_LD:00000000 SPI_assert_CS_LD
C:\Users\ardav\AppData\Local\Temp\cc37iM3u.s:54     .text.SPI_assert_CS_LD:0000001c $d
C:\Users\ardav\AppData\Local\Temp\cc37iM3u.s:59     .text.SPI_deassert_CS_LD:00000000 $t
C:\Users\ardav\AppData\Local\Temp\cc37iM3u.s:65     .text.SPI_deassert_CS_LD:00000000 SPI_deassert_CS_LD
C:\Users\ardav\AppData\Local\Temp\cc37iM3u.s:94     .text.SPI_deassert_CS_LD:0000001c $d
C:\Users\ardav\AppData\Local\Temp\cc37iM3u.s:99     .text.SPI_Write:00000000 $t
C:\Users\ardav\AppData\Local\Temp\cc37iM3u.s:105    .text.SPI_Write:00000000 SPI_Write
C:\Users\ardav\AppData\Local\Temp\cc37iM3u.s:139    .text.SPI_Write:00000020 $d
C:\Users\ardav\AppData\Local\Temp\cc37iM3u.s:144    .text.adf4350_write:00000000 $t
C:\Users\ardav\AppData\Local\Temp\cc37iM3u.s:150    .text.adf4350_write:00000000 adf4350_write
C:\Users\ardav\AppData\Local\Temp\cc37iM3u.s:220    .text.adf4350_sync_config:00000000 $t
C:\Users\ardav\AppData\Local\Temp\cc37iM3u.s:226    .text.adf4350_sync_config:00000000 adf4350_sync_config
C:\Users\ardav\AppData\Local\Temp\cc37iM3u.s:330    .text.adf4350_tune_r_cnt:00000000 $t
C:\Users\ardav\AppData\Local\Temp\cc37iM3u.s:336    .text.adf4350_tune_r_cnt:00000000 adf4350_tune_r_cnt
C:\Users\ardav\AppData\Local\Temp\cc37iM3u.s:419    .text.adf4350_tune_r_cnt:00000044 $d
C:\Users\ardav\AppData\Local\Temp\cc37iM3u.s:424    .text.gcd:00000000 $t
C:\Users\ardav\AppData\Local\Temp\cc37iM3u.s:430    .text.gcd:00000000 gcd
C:\Users\ardav\AppData\Local\Temp\cc37iM3u.s:480    .text.adf4350_set_freq:00000000 $t
C:\Users\ardav\AppData\Local\Temp\cc37iM3u.s:486    .text.adf4350_set_freq:00000000 adf4350_set_freq
C:\Users\ardav\AppData\Local\Temp\cc37iM3u.s:949    .text.adf4350_set_freq:00000228 $d
C:\Users\ardav\AppData\Local\Temp\cc37iM3u.s:960    .text.adf4350_out_altvoltage0_frequency:00000000 $t
C:\Users\ardav\AppData\Local\Temp\cc37iM3u.s:966    .text.adf4350_out_altvoltage0_frequency:00000000 adf4350_out_altvoltage0_frequency
C:\Users\ardav\AppData\Local\Temp\cc37iM3u.s:993    .text.adf4350_out_altvoltage0_frequency:00000010 $d
C:\Users\ardav\AppData\Local\Temp\cc37iM3u.s:998    .text.adf4350_out_altvoltage0_frequency_resolution:00000000 $t
C:\Users\ardav\AppData\Local\Temp\cc37iM3u.s:1004   .text.adf4350_out_altvoltage0_frequency_resolution:00000000 adf4350_out_altvoltage0_frequency_resolution
C:\Users\ardav\AppData\Local\Temp\cc37iM3u.s:1032   .text.adf4350_out_altvoltage0_frequency_resolution:00000014 $d
C:\Users\ardav\AppData\Local\Temp\cc37iM3u.s:1037   .text.adf4350_out_altvoltage0_refin_frequency:00000000 $t
C:\Users\ardav\AppData\Local\Temp\cc37iM3u.s:1043   .text.adf4350_out_altvoltage0_refin_frequency:00000000 adf4350_out_altvoltage0_refin_frequency
C:\Users\ardav\AppData\Local\Temp\cc37iM3u.s:1073   .text.adf4350_out_altvoltage0_refin_frequency:00000018 $d
C:\Users\ardav\AppData\Local\Temp\cc37iM3u.s:1078   .text.adf4350_setup:00000000 $t
C:\Users\ardav\AppData\Local\Temp\cc37iM3u.s:1084   .text.adf4350_setup:00000000 adf4350_setup
C:\Users\ardav\AppData\Local\Temp\cc37iM3u.s:1389   .text.adf4350_setup:00000184 $d
C:\Users\ardav\AppData\Local\Temp\cc37iM3u.s:1396   .text.adf4350_out_altvoltage0_powerdown:00000000 $t
C:\Users\ardav\AppData\Local\Temp\cc37iM3u.s:1402   .text.adf4350_out_altvoltage0_powerdown:00000000 adf4350_out_altvoltage0_powerdown
C:\Users\ardav\AppData\Local\Temp\cc37iM3u.s:1463   .text.adf4350_out_altvoltage0_powerdown:00000034 $d
C:\Users\ardav\AppData\Local\Temp\cc37iM3u.s:1480   .bss.platdata:00000000 platdata
C:\Users\ardav\AppData\Local\Temp\cc37iM3u.s:1469   .bss.adf4350_st:00000000 $d
C:\Users\ardav\AppData\Local\Temp\cc37iM3u.s:1473   .bss.adf4350_st:00000000 adf4350_st
C:\Users\ardav\AppData\Local\Temp\cc37iM3u.s:1476   .bss.platdata:00000000 $d

UNDEFINED SYMBOLS
HAL_GPIO_WritePin
HAL_SPI_Transmit
hspi1
__aeabi_uldivmod
